(dp0
I5864
(lp1
(I5876
I39
tp2
a(I5890
I39
tp3
a(I5924
I39
tp4
a(I5993
I39
tp5
a(I6118
I39
tp6
a(I6327
I39
tp7
a(I7454
I44
tp8
a(I7461
I46
tp9
asI5865
(lp10
(I5879
I39
tp11
a(I5893
I39
tp12
a(I5927
I39
tp13
a(I5996
I39
tp14
a(I6121
I39
tp15
a(I6330
I39
tp16
a(I6658
I39
tp17
a(I7454
I44
tp18
asI5866
(lp19
(I5881
I39
tp20
a(I5895
I39
tp21
a(I5929
I39
tp22
a(I5998
I39
tp23
a(I6123
I39
tp24
a(I6332
I39
tp25
a(I6660
I39
tp26
a(I7454
I44
tp27
asI5867
(lp28
(I5896
I39
tp29
a(I5930
I39
tp30
a(I5999
I39
tp31
a(I6124
I39
tp32
a(I6333
I39
tp33
a(I6661
I39
tp34
a(I7454
I44
tp35
a(I7455
I45
tp36
asI7453
(lp37
(I7454
I44
tp38
a(I7461
I46
tp39
asI7454
(lp40
(I7455
I45
tp41
as.