ccollections
defaultdict
p0
(c__builtin__
int
p1
tp2
Rp3
S'0 9306.2089'
p4
I4
sS'0 4116.2756'
p5
I384
sS'0 9353.4800'
p6
I4
sS'0 9354.2089'
p7
I4
sS'0 9083.4089'
p8
I4
sS'10111.6667'
p9
I4
sS'0 2858.4222'
p10
I1020
sS'0 5159.4000'
p11
I64
sS'0 2871.3467'
p12
I1020
sS'0 4188.4089'
p13
I384
sS'0 5037.3333'
p14
I64
sS'0 3116.7022'
p15
I1020
sS'0 3355.6133'
p16
I1020
sS'0 8600.2800'
p17
I4
sS'10214.3333'
p18
I4
sS'0 4656.8667'
p19
I144
sS'0 2616.2089'
p20
I1020
sS'0 5194.1333'
p21
I64
sS'0 4672.2000'
p22
I144
sS'0 4082.2756'
p23
I384
sS'0 9292.4178'
p24
I4
sS'0 2873.3467'
p25
I1020
sS'0 4178.2756'
p26
I384
sS'0 4179.8400'
p27
I384
sS'10007.8667'
p28
I24
sS'0 4578.9333'
p29
I144
sS'0 8391.2756'
p30
I4
sS'0 5054.1333'
p31
I64
sS'0 9340.4178'
p32
I4
sS'0 4659.8667'
p33
I144
sS'0 4134.7733'
p34
I384
sS'0 4086.4844'
p35
I384
sS'0 4206.4889'
p36
I384
sS'0 9308.4178'
p37
I4
sS'0 8857.3511'
p38
I4
sS'0 5209.7333'
p39
I64
sS'0 8873.4756'
p40
I4
sS'0 4713.1333'
p41
I144
sS'0 5109.1333'
p42
I64
sS'0 5184.1333'
p43
I64
sS'0 5044.5333'
p44
I64
sS'10109.4000'
p45
I4
sS'0 4100.6356'
p46
I384
sS'0 2391.3511'
p47
I1020
sS'0 4206.5422'
p48
I384
sS'0 2617.4089'
p49
I1020
sS'0 4563.4000'
p50
I144
sS'0 3338.4756'
p51
I1020
sS'0 4173.2089'
p52
I384
sS'0 4145.4178'
p53
I384
sS'0 5187.3333'
p54
I64
sS'0 4206.4089'
p55
I384
sS'0 2634.5556'
p56
I1020
sS'0 4642.8667'
p57
I144
sS'0 3338.2756'
p58
I1020
sS'0 4044.8889'
p59
I384
sS'0 4223.6933'
p60
I384
sS'0 9068.2800'
p61
I4
sS'0 4593.8000'
p62
I144
sS'0 4699.3333'
p63
I144
sS'0 4085.4933'
p64
I384
sS'0 4163.4089'
p65
I384
sS'0 4134.6178'
p66
I384
sS'0 3340.5600'
p67
I1020
sS'0 4074.6133'
p68
I384
sS'0 4104.6133'
p69
I384
sS'10009.4000'
p70
I24
sS'0 4104.9111'
p71
I384
sS'0 3353.4800'
p72
I1020
sS'0 2856.3467'
p73
I1020
sS'0 9356.6311'
p74
I4
sS'0 4723.2000'
p75
I144
sS'0 5155.2667'
p76
I64
sS'0 5055.4667'
p77
I64
sS'0 8859.3422'
p78
I4
sS'0 4715.2667'
p79
I144
sS'0 9354.4800'
p80
I4
sS'0 3354.4133'
p81
I1020
sS'0 2633.4844'
p82
I1020
sS'0 4163.4889'
p83
I384
sS'0 5101.6667'
p84
I64
sS'0 4133.6933'
p85
I384
sS'0 4101.7067'
p86
I384
sS'0 4608.7333'
p87
I144
sS'0 9113.4933'
p88
I4
sS'10007.5333'
p89
I24
sS'0 4146.4844'
p90
I384
sS'0 4186.3422'
p91
I384
sS'0 4206.7067'
p92
I384
sS'0 4115.6356'
p93
I384
sS'0 4058.8311'
p94
I384
sS'0 3100.3422'
p95
I1020
sS'0 4205.5644'
p96
I384
sS'0 5038.3333'
p97
I64
sS'0 4221.6756'
p98
I384
sS'0 9116.4800'
p99
I4
sS'0 4085.4800'
p100
I384
sS'0 2858.3422'
p101
I1020
sS'0 5115.1333'
p102
I64
sS'0 4039.4800'
p103
I384
sS'0 9052.4089'
p104
I4
sS'0 4074.5600'
p105
I384
sS'0 4705.2000'
p106
I144
sS'0 4577.6000'
p107
I144
sS'0 4070.6311'
p108
I384
sS'0 4141.2800'
p109
I384
sS'0 9116.5600'
p110
I4
sS'0 3323.4222'
p111
I1020
sS'0 4103.3467'
p112
I384
sS'0 9355.5556'
p113
I4
sS'0 5067.2000'
p114
I64
sS'0 4101.6978'
p115
I384
sS'0 4083.4089'
p116
I384
sS'10009.8667'
p117
I24
sS'0 4188.3467'
p118
I384
sS'0 4178.4178'
p119
I384
sS'0 3292.2756'
p120
I1020
sS'0 2858.2089'
p121
I1020
sS'0 4149.5600'
p122
I384
sS'0 4698.8000'
p123
I144
sS'0 4595.6667'
p124
I144
sS'0 4164.2800'
p125
I384
sS'0 9357.2800'
p126
I4
sS'0 3276.2800'
p127
I1020
sS'0 9096.3422'
p128
I4
sS'0 2859.4889'
p129
I1020
sS'0 4134.8756'
p130
I384
sS'0 5074.6000'
p131
I64
sS'0 4099.2756'
p132
I384
sS'0 8858.3511'
p133
I4
sS'0 3114.4844'
p134
I1020
sS'0 4102.7733'
p135
I384
sS'0 8618.3467'
p136
I4
sS'0 8633.4800'
p137
I4
sS'0 4133.7067'
p138
I384
sS'0 4206.5556'
p139
I384
sS'0 3276.3467'
p140
I1020
sS'0 5191.5333'
p141
I64
sS'0 4207.5511'
p142
I384
sS'0 5052.3333'
p143
I64
sS'0 9098.4756'
p144
I4
sS'0 2859.4089'
p145
I1020
sS'0 5194.5333'
p146
I64
sS'0 4703.4000'
p147
I144
sS'0 4118.7556'
p148
I384
sS'0 5038.2000'
p149
I64
sS'0 3116.3511'
p150
I1020
sS'0 3357.4844'
p151
I1020
sS'0 9099.4222'
p152
I4
sS'0 4044.7778'
p153
I384
sS'0 4133.7600'
p154
I384
sS'0 4127.3422'
p155
I384
sS'0 3277.3511'
p156
I1020
sS'0 4057.7689'
p157
I384
sS'0 2827.2756'
p158
I1020
sS'0 4218.2800'
p159
I384
sS'0 5089.4000'
p160
I64
sS'0 4149.7600'
p161
I384
sS'0 9357.2756'
p162
I4
sS'0 3083.4089'
p163
I1020
sS'0 4704.4667'
p164
I144
sS'0 5149.2667'
p165
I64
sS'10102.9333'
p166
I4
sS'0 4194.6889'
p167
I384
sS'0 4100.6133'
p168
I384
sS'0 4149.6800'
p169
I384
sS'0 4044.7556'
p170
I384
sS'0 4607.7333'
p171
I144
sS'0 9052.3467'
p172
I4
sS'0 4190.2756'
p173
I384
sS'0 4059.4178'
p174
I384
sS'0 4073.4933'
p175
I384
sS'0 4625.2000'
p176
I144
sS'0 4707.4000'
p177
I144
sS'0 5118.6000'
p178
I64
sS'0 4220.2089'
p179
I384
sS'0 4055.4178'
p180
I384
sS'0 3083.4889'
p181
I1020
sS'0 5089.8667'
p182
I64
sS'0 5163.6000'
p183
I64
sS'0 4209.7644'
p184
I384
sS'0 5131.4667'
p185
I64
sS'0 2634.4756'
p186
I1020
sS'0 5222.3333'
p187
I64
sS'0 3291.3467'
p188
I1020
sS'0 3308.4800'
p189
I1020
sS'0 5049.1333'
p190
I64
sS'0 5129.2667'
p191
I64
sS'0 4100.4889'
p192
I384
sS'0 5114.2000'
p193
I64
sS'0 2376.3422'
p194
I1020
sS'0 4697.3333'
p195
I144
sS'0 4670.8000'
p196
I144
sS'10006.8667'
p197
I24
sS'0 4209.7467'
p198
I384
sS'0 4117.4178'
p199
I384
sS'0 4170.2756'
p200
I384
sS'0 2634.4133'
p201
I1020
sS'0 5206.4000'
p202
I64
sS'0 3325.4800'
p203
I1020
sS'0 4178.6844'
p204
I384
sS'0 5101.3333'
p205
I64
sS'0 4057.6222'
p206
I384
sS'0 5209.2667'
p207
I64
sS'0 8874.2089'
p208
I4
sS'0 5127.1333'
p209
I64
sS'0 4187.4133'
p210
I384
sS'0 9277.2800'
p211
I4
sS'0 4578.4000'
p212
I144
sS'0 9323.4178'
p213
I4
sS'0 4697.2000'
p214
I144
sS'0 9097.4178'
p215
I4
sS'10014.7333'
p216
I24
sS'0 3340.4089'
p217
I1020
sS'0 8843.4844'
p218
I4
sS'0 8360.2800'
p219
I4
sS'0 9115.6356'
p220
I4
sS'0 3115.6133'
p221
I1020
sS'0 4675.3333'
p222
I144
sS'0 9081.2089'
p223
I4
sS'0 9340.4756'
p224
I4
sS'0 4089.5422'
p225
I384
sS'0 9065.2089'
p226
I4
sS'0 4699.6000'
p227
I144
sS'0 4089.8844'
p228
I384
sS'0 4035.2800'
p229
I384
sS'0 5177.4000'
p230
I64
sS'0 8136.3422'
p231
I4
sS'0 4042.7600'
p232
I384
sS'0 3339.2756'
p233
I1020
sS'0 5104.5333'
p234
I64
sS'0 4205.4844'
p235
I384
sS'0 9339.2800'
p236
I4
sS'0 8841.3511'
p237
I4
sS'0 3340.4889'
p238
I1020
sS'0 4209.6933'
p239
I384
sS'0 3066.3511'
p240
I1020
sS'0 4221.2089'
p241
I384
sS'0 4577.2000'
p242
I144
sS'0 2843.3511'
p243
I1020
sS'10112.6667'
p244
I4
sS'0 3354.3511'
p245
I1020
sS'0 4071.5467'
p246
I384
sS'0 2874.4800'
p247
I1020
sS'0 4547.3333'
p248
I144
sS'0 5042.4000'
p249
I64
sS'0 9356.2800'
p250
I4
sS'0 4129.4933'
p251
I384
sS'0 4145.2756'
p252
I384
sS'0 4133.8444'
p253
I384
sS'0 9357.7600'
p254
I4
sS'0 9356.3422'
p255
I4
sS'0 4562.6667'
p256
I144
sS'0 4654.4000'
p257
I144
sS'0 4058.7067'
p258
I384
sS'0 4595.1333'
p259
I144
sS'0 5178.6000'
p260
I64
sS'0 3099.5422'
p261
I1020
sS'0 4089.7067'
p262
I384
sS'0 9325.6089'
p263
I4
sS'0 5069.5333'
p264
I64
sS'0 4148.7778'
p265
I384
sS'10114.6667'
p266
I4
sS'0 4674.6667'
p267
I144
sS'0 4193.6978'
p268
I384
sS'0 5103.6667'
p269
I64
sS'0 4719.4667'
p270
I144
sS'10105.2000'
p271
I4
sS'0 3112.3467'
p272
I1020
sS'0 3097.4222'
p273
I1020
sS'0 4685.5333'
p274
I144
sS'0 4042.4800'
p275
I384
sS'10104.9333'
p276
I4
sS'0 4707.6000'
p277
I144
sS'0 2874.5600'
p278
I1020
sS'0 8376.2800'
p279
I4
sS'0 9354.5600'
p280
I4
sS'0 8859.2089'
p281
I4
sS'0 2618.3511'
p282
I1020
sS'0 5221.5333'
p283
I64
sS'0 4178.3422'
p284
I384
sS'0 3116.6756'
p285
I1020
sS'0 9116.6178'
p286
I4
sS'0 4670.2000'
p287
I144
sS'10110.2000'
p288
I4
sS'0 4164.8311'
p289
I384
sS'0 5207.2000'
p290
I64
sS'0 9324.3422'
p291
I4
sS'0 4042.3467'
p292
I384
sS'0 5039.3333'
p293
I64
sS'0 4219.3467'
p294
I384
sS'0 4178.8444'
p295
I384
sS'0 4042.5600'
p296
I384
sS'0 4041.5600'
p297
I384
sS'0 5131.2000'
p298
I64
sS'0 4132.6933'
p299
I384
sS'0 4219.4756'
p300
I384
sS'0 2570.2800'
p301
I1020
sS'0 8149.2089'
p302
I4
sS'0 4640.2667'
p303
I144
sS'0 4163.7689'
p304
I384
sS'0 4131.6178'
p305
I384
sS'10108.6000'
p306
I4
sS'0 4668.6000'
p307
I144
sS'0 9325.5422'
p308
I4
sS'0 3068.4889'
p309
I1020
sS'0 4117.7733'
p310
I384
sS'0 4656.5333'
p311
I144
sS'0 5118.2000'
p312
I64
sS'0 4058.4089'
p313
I384
sS'0 9113.4222'
p314
I4
sS'0 2872.2756'
p315
I1020
sS'0 9356.6889'
p316
I4
sS'0 5222.7333'
p317
I64
sS'0 4175.6311'
p318
I384
sS'0 2841.2800'
p319
I1020
sS'0 4104.8400'
p320
I384
sS'0 5194.2667'
p321
I64
sS'0 8376.3511'
p322
I4
sS'0 3116.6800'
p323
I1020
sS'0 4219.5600'
p324
I384
sS'0 9356.6089'
p325
I4
sS'0 4190.5644'
p326
I384
sS'0 5219.2667'
p327
I64
sS'0 9340.5467'
p328
I4
sS'0 4039.4133'
p329
I384
sS'0 4177.6267'
p330
I384
sS'0 4623.8000'
p331
I144
sS'0 4103.7689'
p332
I384
sS'0 8391.3422'
p333
I4
sS'0 5082.2000'
p334
I64
sS'0 4055.3511'
p335
I384
sS'10014.3333'
p336
I24
sS'0 4074.8222'
p337
I384
sS'0 2826.2756'
p338
I1020
sS'0 4713.6667'
p339
I144
sS'10008.2667'
p340
I24
sS'0 5044.2667'
p341
I64
sS'0 9112.2756'
p342
I4
sS'10005.4000'
p343
I24
sS'0 4712.8667'
p344
I144
sS'10110.6000'
p345
I4
sS'0 3068.4089'
p346
I1020
sS'0 4059.7644'
p347
I384
sS'0 4058.8089'
p348
I384
sS'0 4072.5644'
p349
I384
sS'0 4145.4800'
p350
I384
sS'0 4079.2089'
p351
I384
sS'0 4148.8222'
p352
I384
sS'0 4673.8000'
p353
I144
sS'0 3293.4933'
p354
I1020
sS'0 4043.4889'
p355
I384
sS'0 9293.4133'
p356
I4
sS'0 3115.3467'
p357
I1020
sS'0 2602.4133'
p358
I1020
sS'0 4699.2000'
p359
I144
sS'0 5055.5333'
p360
I64
sS'0 3356.5644'
p361
I1020
sS'0 3357.6356'
p362
I1020
sS'0 4074.9067'
p363
I384
sS'0 4685.6000'
p364
I144
sS'0 2614.2089'
p365
I1020
sS'0 8842.3511'
p366
I4
sS'0 2842.3511'
p367
I1020
sS'0 3323.4756'
p368
I1020
sS'0 4697.6000'
p369
I144
sS'0 5203.2667'
p370
I64
sS'0 3357.7511'
p371
I1020
sS'0 4040.4889'
p372
I384
sS'0 3354.5600'
p373
I1020
sS'0 4222.6844'
p374
I384
sS'0 4053.4933'
p375
I384
sS'0 4101.6356'
p376
I384
sS'0 4157.2756'
p377
I384
sS'0 4148.8489'
p378
I384
sS'0 4163.6356'
p379
I384
sS'0 3323.2756'
p380
I1020
sS'0 4177.4133'
p381
I384
sS'10007.4000'
p382
I24
sS'10106.4667'
p383
I4
sS'0 4164.6089'
p384
I384
sS'0 4216.3511'
p385
I384
sS'0 4206.6356'
p386
I384
sS'0 4073.8444'
p387
I384
sS'0 9357.3422'
p388
I4
sS'0 4044.8267'
p389
I384
sS'0 5175.3333'
p390
I64
sS'0 4185.2800'
p391
I384
sS'0 8857.4089'
p392
I4
sS'0 9084.4222'
p393
I4
sS'0 4223.7778'
p394
I384
sS'0 4159.4800'
p395
I384
sS'0 4721.1333'
p396
I144
sS'0 2136.3422'
p397
I1020
sS'10105.6000'
p398
I4
sS'0 3357.6133'
p399
I1020
sS'0 4609.7333'
p400
I144
sS'0 4142.2089'
p401
I384
sS'0 3276.2756'
p402
I1020
sS'10104.5333'
p403
I4
sS'0 4038.3467'
p404
I384
sS'0 5072.5333'
p405
I64
sS'0 9098.4222'
p406
I4
sS'0 4627.9333'
p407
I144
sS'0 8585.2800'
p408
I4
sS'0 4209.6133'
p409
I384
sS'0 4148.6756'
p410
I384
sS'0 4164.4089'
p411
I384
sS'0 4148.4933'
p412
I384
sS'0 4674.8000'
p413
I144
sS'0 4191.6222'
p414
I384
sS'10009.7333'
p415
I24
sS'0 4205.2800'
p416
I384
sS'0 5207.6000'
p417
I64
sS'0 4688.6667'
p418
I144
sS'0 4204.4222'
p419
I384
sS'0 4147.7778'
p420
I384
sS'0 4149.8978'
p421
I384
sS'0 3292.3511'
p422
I1020
sS'0 5131.6000'
p423
I64
sS'0 5114.5333'
p424
I64
sS'0 4687.6000'
p425
I144
sS'0 2843.2800'
p426
I1020
sS'0 8618.4133'
p427
I4
sS'0 8810.2800'
p428
I4
sS'0 9325.4756'
p429
I4
sS'0 4701.2667'
p430
I144
sS'0 3114.4133'
p431
I1020
sS'0 4143.4800'
p432
I384
sS'0 4700.2667'
p433
I144
sS'0 8601.2756'
p434
I4
sS'0 9095.2756'
p435
I4
sS'0 9116.2089'
p436
I4
sS'0 9110.2800'
p437
I4
sS'0 5133.3333'
p438
I64
sS'0 5175.2000'
p439
I64
sS'0 4118.6222'
p440
I384
sS'0 4133.8267'
p441
I384
sS'0 3340.6311'
p442
I1020
sS'0 4115.4089'
p443
I384
sS'0 8632.4089'
p444
I4
sS'10106.8000'
p445
I4
sS'0 5201.1333'
p446
I64
sS'0 4118.5556'
p447
I384
sS'0 9309.4133'
p448
I4
sS'10104.4000'
p449
I4
sS'0 8875.4089'
p450
I4
sS'10102.8000'
p451
I4
sS'0 3336.2800'
p452
I1020
sS'0 9323.4800'
p453
I4
sS'0 4164.7600'
p454
I384
sS'0 2601.2089'
p455
I1020
sS'0 4134.8133'
p456
I384
sS'0 4640.2000'
p457
I144
sS'0 5100.5333'
p458
I64
sS'0 4057.6756'
p459
I384
sS'0 4134.4800'
p460
I384
sS'0 3114.5511'
p461
I1020
sS'0 4190.3511'
p462
I384
sS'0 8874.4844'
p463
I4
sS'0 8875.4889'
p464
I4
sS'0 4117.5467'
p465
I384
sS'0 3111.3511'
p466
I1020
sS'0 4683.2667'
p467
I144
sS'0 5207.2667'
p468
I64
sS'0 5204.2667'
p469
I64
sS'0 4655.4667'
p470
I144
sS'0 4142.4222'
p471
I384
sS'0 8843.2089'
p472
I4
sS'0 2857.3422'
p473
I1020
sS'0 4103.8178'
p474
I384
sS'0 3325.2089'
p475
I1020
sS'0 4682.8667'
p476
I144
sS'0 5074.1333'
p477
I64
sS'0 4055.4889'
p478
I384
sS'0 4038.4933'
p479
I384
sS'0 4147.6756'
p480
I384
sS'0 9340.4844'
p481
I4
sS'0 4704.4000'
p482
I144
sS'0 5164.8000'
p483
I64
sS'0 4222.4178'
p484
I384
sS'0 9277.2756'
p485
I4
sS'0 4103.6800'
p486
I384
sS'0 2875.6133'
p487
I1020
sS'0 4187.3467'
p488
I384
sS'0 9334.2089'
p489
I4
sS'0 4179.6222'
p490
I384
sS'0 9337.3467'
p491
I4
sS'0 2361.3422'
p492
I1020
sS'0 4055.4089'
p493
I384
sS'0 4209.4800'
p494
I384
sS'0 4100.5556'
p495
I384
sS'0 3324.3467'
p496
I1020
sS'0 4041.6978'
p497
I384
sS'0 5104.4667'
p498
I64
sS'0 9113.2756'
p499
I4
sS'0 4072.7467'
p500
I384
sS'0 5083.4000'
p501
I64
sS'0 3115.5467'
p502
I1020
sS'10002.8667'
p503
I24
sS'10010.1333'
p504
I24
sS'0 5178.6667'
p505
I64
sS'0 4718.4000'
p506
I144
sS'0 5103.7333'
p507
I64
sS'0 9083.4844'
p508
I4
sS'0 8872.2800'
p509
I4
sS'0 4610.1333'
p510
I144
sS'0 8870.2756'
p511
I4
sS'0 8811.3467'
p512
I4
sS'0 9341.7022'
p513
I4
sS'0 5129.2000'
p514
I64
sS'0 4161.3422'
p515
I384
sS'0 9340.5511'
p516
I4
sS'0 4161.5644'
p517
I384
sS'0 2871.2800'
p518
I1020
sS'0 4174.3511'
p519
I384
sS'0 5133.6667'
p520
I64
sS'10004.4000'
p521
I24
sS'0 4132.6222'
p522
I384
sS'0 4687.2000'
p523
I144
sS'0 3112.4133'
p524
I1020
sS'0 4194.7778'
p525
I384
sS'0 4125.2089'
p526
I384
sS'0 4209.8489'
p527
I384
sS'0 9357.4089'
p528
I4
sS'0 9100.4222'
p529
I4
sS'0 4673.8667'
p530
I144
sS'0 4642.6667'
p531
I144
sS'0 2632.2089'
p532
I1020
sS'0 2634.2800'
p533
I1020
sS'0 3355.6178'
p534
I1020
sS'10114.7333'
p535
I4
sS'0 3052.4178'
p536
I1020
sS'0 3115.4222'
p537
I1020
sS'0 4703.7333'
p538
I144
sS'0 9309.4800'
p539
I4
sS'0 5221.4000'
p540
I64
sS'0 5193.6000'
p541
I64
sS'0 4179.8444'
p542
I384
sS'0 4188.4222'
p543
I384
sS'0 3354.4178'
p544
I1020
sS'0 5179.2000'
p545
I64
sS'0 9340.4133'
p546
I4
sS'0 4086.4800'
p547
I384
sS'0 8842.4178'
p548
I4
sS'0 4134.7778'
p549
I384
sS'0 4206.4844'
p550
I384
sS'0 9353.4844'
p551
I4
sS'0 4642.7333'
p552
I144
sS'0 5116.2000'
p553
I64
sS'0 4175.6089'
p554
I384
sS'0 2345.2800'
p555
I1020
sS'0 4100.6311'
p556
I384
sS'0 4685.2667'
p557
I144
sS'0 5191.3333'
p558
I64
sS'0 4145.4133'
p559
I384
sS'0 4206.5467'
p560
I384
sS'0 4177.4756'
p561
I384
sS'0 5094.2000'
p562
I64
sS'0 4095.2756'
p563
I384
sS'0 4156.2800'
p564
I384
sS'0 2841.2756'
p565
I1020
sS'0 4684.4667'
p566
I144
sS'0 4720.2000'
p567
I144
sS'0 4074.6356'
p568
I384
sS'0 3307.3511'
p569
I1020
sS'0 4084.4844'
p570
I384
sS'0 9292.4133'
p571
I4
sS'0 3351.3467'
p572
I1020
sS'0 3340.2800'
p573
I1020
sS'0 5073.3333'
p574
I64
sS'0 4223.2089'
p575
I384
sS'0 9305.2800'
p576
I4
sS'0 5174.3333'
p577
I64
sS'0 5177.3333'
p578
I64
sS'0 3115.5600'
p579
I1020
sS'0 4688.2000'
p580
I144
sS'0 4223.6978'
p581
I384
sS'0 9357.7067'
p582
I4
sS'0 3113.4800'
p583
I1020
sS'0 4042.4133'
p584
I384
sS'0 3277.4178'
p585
I1020
sS'0 3099.3467'
p586
I1020
sS'0 4104.9156'
p587
I384
sS'0 5100.1333'
p588
I64
sS'0 9356.6356'
p589
I4
sS'10011.2000'
p590
I24
sS'0 9098.4889'
p591
I4
sS'0 4609.9333'
p592
I144
sS'0 8859.3467'
p593
I4
sS'0 4132.3511'
p594
I384
sS'0 2633.4800'
p595
I1020
sS'0 9291.3511'
p596
I4
sS'0 9114.2089'
p597
I4
sS'0 4174.5556'
p598
I384
sS'0 4223.6356'
p599
I384
sS'0 4174.4178'
p600
I384
sS'0 4221.6178'
p601
I384
sS'0 4186.3467'
p602
I384
sS'0 4088.4933'
p603
I384
sS'0 8600.2756'
p604
I4
sS'0 4206.7022'
p605
I384
sS'0 5506.3333'
p606
I1020
sS'0 5156.1333'
p607
I64
sS'0 3357.7689'
p608
I1020
sS'10111.3333'
p609
I4
sS'0 4074.7556'
p610
I384
sS'0 9338.4222'
p611
I4
sS'0 4085.4844'
p612
I384
sS'0 3356.4933'
p613
I1020
sS'0 4039.4844'
p614
I384
sS'0 4103.2800'
p615
I384
sS'0 5127.2667'
p616
I64
sS'0 4133.6267'
p617
I384
sS'0 9116.5644'
p618
I4
sS'0 4130.2800'
p619
I384
sS'0 4070.6356'
p620
I384
sS'0 4149.5422'
p621
I384
sS'0 4101.6800'
p622
I384
sS'0 4188.3422'
p623
I384
sS'0 3338.3467'
p624
I1020
sS'0 2875.4222'
p625
I1020
sS'0 3350.2756'
p626
I1020
sS'0 4715.6000'
p627
I144
sS'0 4057.5644'
p628
I384
sS'0 4149.5644'
p629
I384
sS'0 2602.3467'
p630
I1020
sS'0 5104.8000'
p631
I64
sS'0 9096.3467'
p632
I4
sS'0 4056.6978'
p633
I384
sS'0 4595.8667'
p634
I144
sS'0 8152.4133'
p635
I4
sS'0 3082.4178'
p636
I1020
sS'0 3114.4800'
p637
I1020
sS'0 4223.7022'
p638
I384
sS'0 4206.6089'
p639
I384
sS'0 4116.6133'
p640
I384
sS'0 9083.2089'
p641
I4
sS'0 4188.2089'
p642
I384
sS'0 4162.6222'
p643
I384
sS'0 9355.5511'
p644
I4
sS'0 4207.5556'
p645
I384
sS'0 3357.5467'
p646
I1020
sS'0 4052.2756'
p647
I384
sS'0 4040.6356'
p648
I384
sS'0 4189.4889'
p649
I384
sS'0 4157.3422'
p650
I384
sS'0 4206.6889'
p651
I384
sS'0 4714.5333'
p652
I144
sS'0 4044.7733'
p653
I384
sS'0 3292.4089'
p654
I1020
sS'0 4058.3511'
p655
I384
sS'0 4149.7644'
p656
I384
sS'10105.9333'
p657
I4
sS'0 4189.4089'
p658
I384
sS'0 4223.4222'
p659
I384
sS'0 2618.4089'
p660
I1020
sS'0 4207.7778'
p661
I384
sS'0 4133.4222'
p662
I384
sS'0 9261.2756'
p663
I4
sS'0 4190.4089'
p664
I384
sS'0 3083.4844'
p665
I1020
sS'10010.5333'
p666
I24
sS'0 9097.2089'
p667
I4
sS'0 3357.4222'
p668
I1020
sS'0 2618.4889'
p669
I1020
sS'0 5101.2000'
p670
I64
sS'0 8859.4089'
p671
I4
sS'0 4222.6311'
p672
I384
sS'0 4209.7600'
p673
I384
sS'0 2630.2089'
p674
I1020
sS'0 5163.8000'
p675
I64
sS'0 3019.2089'
p676
I1020
sS'0 4057.7644'
p677
I384
sS'0 4143.4756'
p678
I384
sS'0 8843.4756'
p679
I4
sS'0 3340.5644'
p680
I1020
sS'0 5162.3333'
p681
I64
sS'0 2618.4222'
p682
I1020
sS'0 4102.6889'
p683
I384
sS'0 4149.9200'
p684
I384
sS'0 4674.3333'
p685
I144
sS'0 2376.3467'
p686
I1020
sS'10114.3333'
p687
I4
sS'0 8810.2756'
p688
I4
sS'0 4203.4756'
p689
I384
sS'0 2875.3511'
p690
I1020
sS'0 4117.4133'
p691
I384
sS'0 4057.7422'
p692
I384
sS'0 3355.4222'
p693
I1020
sS'0 3355.4889'
p694
I1020
sS'0 2842.4089'
p695
I1020
sS'0 4701.1333'
p696
I144
sS'0 4098.2800'
p697
I384
sS'0 5043.5333'
p698
I64
sS'0 5218.3333'
p699
I64
sS'0 3309.4178'
p700
I1020
sS'0 4206.3467'
p701
I384
sS'0 4217.3511'
p702
I384
sS'0 5119.1333'
p703
I64
sS'0 4085.6089'
p704
I384
sS'0 5079.2000'
p705
I64
sS'0 5133.2000'
p706
I64
sS'0 4203.4133'
p707
I384
sS'0 4702.3333'
p708
I144
sS'0 2390.2756'
p709
I1020
sS'0 4089.8089'
p710
I384
sS'0 4205.4800'
p711
I384
sS'0 4073.7733'
p712
I384
sS'0 8843.4800'
p713
I4
sS'0 2827.3467'
p714
I1020
sS'0 4626.1333'
p715
I144
sS'0 4148.6978'
p716
I384
sS'0 2150.2800'
p717
I1020
sS'0 4194.6178'
p718
I384
sS'0 9325.5600'
p719
I4
sS'0 4089.5467'
p720
I384
sS'0 4657.1333'
p721
I144
sS'10103.5333'
p722
I4
sS'0 9355.2089'
p723
I4
sS'0 3325.4844'
p724
I1020
sS'0 4178.6800'
p725
I384
sS'0 4042.7644'
p726
I384
sS'0 4719.2667'
p727
I144
sS'0 4161.6133'
p728
I384
sS'0 4071.4800'
p729
I384
sS'0 5131.3333'
p730
I64
sS'0 1911.2089'
p731
I1020
sS'0 5089.2667'
p732
I64
sS'0 9291.2089'
p733
I4
sS'0 9097.4133'
p734
I4
sS'0 9067.4178'
p735
I4
sS'0 2874.4844'
p736
I1020
sS'0 5132.2000'
p737
I64
sS'0 4222.2800'
p738
I384
sS'0 2875.4889'
p739
I1020
sS'0 4191.5556'
p740
I384
sS'0 9292.2089'
p741
I4
sS'0 5207.1333'
p742
I64
sS'0 3099.2800'
p743
I1020
sS'0 4143.2756'
p744
I384
sS'0 4655.7333'
p745
I144
sS'0 4133.8400'
p746
I384
sS'0 9356.3467'
p747
I4
sS'0 9357.7644'
p748
I4
sS'0 4193.3511'
p749
I384
sS'0 5059.6000'
p750
I64
sS'0 5131.1333'
p751
I64
sS'0 9340.2089'
p752
I4
sS'0 4089.9022'
p753
I384
sS'0 8136.3467'
p754
I4
sS'0 4089.7022'
p755
I384
sS'0 4133.3467'
p756
I384
sS'0 4088.5511'
p757
I384
sS'0 2874.5467'
p758
I1020
sS'0 5163.4000'
p759
I64
sS'0 4205.5511'
p760
I384
sS'0 4193.6933'
p761
I384
sS'0 2393.4178'
p762
I1020
sS'0 4205.6133'
p763
I384
sS'0 2874.5644'
p764
I1020
sS'0 2134.2089'
p765
I1020
sS'0 4087.4756'
p766
I384
sS'0 4087.6933'
p767
I384
sS'0 9341.6933'
p768
I4
sS'0 8872.4089'
p769
I4
sS'0 4700.9333'
p770
I144
sS'0 4117.6133'
p771
I384
sS'0 3115.4756'
p772
I1020
sS'0 4101.3511'
p773
I384
sS'0 9340.6133'
p774
I4
sS'0 4611.7333'
p775
I144
sS'0 3099.5467'
p776
I1020
sS'0 4043.4178'
p777
I384
sS'10002.4000'
p778
I24
sS'0 4179.8311'
p779
I384
sS'0 4117.7511'
p780
I384
sS'0 4089.8978'
p781
I384
sS'0 4164.8356'
p782
I384
sS'0 5204.2000'
p783
I64
sS'0 4100.6089'
p784
I384
sS'0 4119.8267'
p785
I384
sS'0 4178.8400'
p786
I384
sS'0 4042.5644'
p787
I384
sS'0 3341.6089'
p788
I1020
sS'0 4669.6000'
p789
I144
sS'0 9019.2089'
p790
I4
sS'0 5058.1333'
p791
I64
sS'0 9339.2089'
p792
I4
sS'0 8634.5467'
p793
I4
sS'0 8870.2800'
p794
I4
sS'0 2377.4133'
p795
I1020
sS'0 2858.4933'
p796
I1020
sS'0 5162.7333'
p797
I64
sS'0 2874.5511'
p798
I1020
sS'0 3341.6889'
p799
I1020
sS'0 4223.8400'
p800
I384
sS'0 5187.2667'
p801
I64
sS'0 4659.2667'
p802
I144
sS'0 4099.4844'
p803
I384
sS'0 5066.1333'
p804
I64
sS'0 4674.4667'
p805
I144
sS'0 4219.4800'
p806
I384
sS'0 9309.2089'
p807
I4
sS'0 2345.2756'
p808
I1020
sS'0 4104.8444'
p809
I384
sS'10103.6000'
p810
I4
sS'0 3351.2800'
p811
I1020
sS'0 4653.4667'
p812
I144
sS'0 4104.4800'
p813
I384
sS'0 3351.2756'
p814
I1020
sS'0 9354.3511'
p815
I4
sS'0 9339.5644'
p816
I4
sS'0 4718.6000'
p817
I144
sS'0 4216.2089'
p818
I384
sS'0 4177.6222'
p819
I384
sS'0 8391.3467'
p820
I4
sS'0 4715.4667'
p821
I144
sS'0 4163.8267'
p822
I384
sS'0 5044.4667'
p823
I64
sS'10002.8000'
p824
I24
sS'0 4117.7778'
p825
I384
sS'0 3068.4844'
p826
I1020
sS'0 4191.2800'
p827
I384
sS'0 3338.2800'
p828
I1020
sS'0 4701.5333'
p829
I144
sS'0 5042.6000'
p830
I64
sS'0 5200.1333'
p831
I64
sS'0 4119.3511'
p832
I384
sS'0 4609.1333'
p833
I144
sS'0 3100.6178'
p834
I1020
sS'0 3110.2800'
p835
I1020
sS'0 5191.2000'
p836
I64
sS'0 4177.5422'
p837
I384
sS'0 4158.2089'
p838
I384
sS'0 2873.4933'
p839
I1020
sS'0 4088.6933'
p840
I384
sS'0 8634.5511'
p841
I4
sS'0 4037.2800'
p842
I384
sS'0 4074.9200'
p843
I384
sS'0 4074.5556'
p844
I384
sS'10103.1333'
p845
I4
sS'0 9355.6089'
p846
I4
sS'0 3356.5600'
p847
I1020
sS'0 5177.2000'
p848
I64
sS'0 4054.4844'
p849
I384
sS'0 9357.6356'
p850
I4
sS'0 4147.3511'
p851
I384
sS'0 4071.6133'
p852
I384
sS'0 9050.2800'
p853
I4
sS'0 4074.8267'
p854
I384
sS'10210.6000'
p855
I4
sS'0 4088.7689'
p856
I384
sS'0 4117.3511'
p857
I384
sS'0 4163.6178'
p858
I384
sS'0 5050.2667'
p859
I64
sS'0 4674.2000'
p860
I144
sS'10114.2000'
p861
I4
sS'0 2616.2800'
p862
I1020
sS'0 5084.4667'
p863
I64
sS'0 9356.7022'
p864
I4
sS'0 9084.3511'
p865
I4
sS'0 4073.8267'
p866
I384
sS'10106.6667'
p867
I4
sS'0 4637.2667'
p868
I144
sS'0 5508.4667'
p869
I1020
sS'0 4145.4844'
p870
I384
sS'0 4667.3333'
p871
I144
sS'10107.3333'
p872
I4
sS'0 4163.6311'
p873
I384
sS'0 4073.7067'
p874
I384
sS'0 4657.6000'
p875
I144
sS'0 5207.5333'
p876
I64
sS'0 4202.2756'
p877
I384
sS'0 4688.8667'
p878
I144
sS'0 4595.4667'
p879
I144
sS'0 5043.8000'
p880
I64
sS'0 4206.6311'
p881
I384
sS'0 3357.6311'
p882
I1020
sS'0 4594.9333'
p883
I144
sS'0 4562.9333'
p884
I144
sS'0 4073.8400'
p885
I384
sS'0 4115.4178'
p886
I384
sS'0 8874.3467'
p887
I4
sS'0 4173.2800'
p888
I384
sS'0 4118.7600'
p889
I384
sS'0 4717.8000'
p890
I144
sS'0 4133.7556'
p891
I384
sS'0 4690.4000'
p892
I144
sS'0 4217.4133'
p893
I384
sS'0 2136.3467'
p894
I1020
sS'0 4222.6800'
p895
I384
sS'0 4203.3511'
p896
I384
sS'0 4053.4756'
p897
I384
sS'0 5157.2667'
p898
I64
sS'0 5510.6000'
p899
I1020
sS'0 9068.2089'
p900
I4
sS'0 3245.2089'
p901
I1020
sS'0 4194.6756'
p902
I384
sS'0 5084.1333'
p903
I64
sS'0 9322.4222'
p904
I4
sS'0 2840.2089'
p905
I1020
sS'0 4191.6267'
p906
I384
sS'0 8617.4133'
p907
I4
sS'0 5221.2667'
p908
I64
sS'0 4149.4133'
p909
I384
sS'0 2136.2800'
p910
I1020
sS'0 9276.2800'
p911
I4
sS'0 4607.6667'
p912
I144
sS'0 8794.2089'
p913
I4
sS'0 4593.6667'
p914
I144
sS'0 8618.4178'
p915
I4
sS'0 4716.3333'
p916
I144
sS'0 5087.4000'
p917
I64
sS'0 2827.2800'
p918
I1020
sS'0 4147.7511'
p919
I384
sS'0 3323.3511'
p920
I1020
sS'0 4132.7467'
p921
I384
sS'0 4218.4222'
p922
I384
sS'0 3114.4178'
p923
I1020
sS'0 3357.4756'
p924
I1020
sS'0 9099.4933'
p925
I4
sS'0 4655.9333'
p926
I144
sS'0 4052.3422'
p927
I384
sS'0 4083.4933'
p928
I384
sS'0 4118.6267'
p929
I384
sS'0 4682.5333'
p930
I144
sS'0 4722.4000'
p931
I144
sS'0 4193.2800'
p932
I384
sS'0 4149.8933'
p933
I384
sS'0 4132.7600'
p934
I384
sS'0 4118.5511'
p935
I384
sS'0 3309.3467'
p936
I1020
sS'0 4611.2667'
p937
I144
sS'0 2870.2800'
p938
I1020
sS'0 4686.3333'
p939
I144
sS'10007.2667'
p940
I24
sS'0 4673.6667'
p941
I144
sS'10113.6667'
p942
I4
sS'0 4119.5556'
p943
I384
sS'0 8856.3511'
p944
I4
sS'0 4625.8000'
p945
I144
sS'0 4072.3422'
p946
I384
sS'0 3114.5556'
p947
I1020
sS'0 8874.4889'
p948
I4
sS'0 2858.2800'
p949
I1020
sS'0 9261.3422'
p950
I4
sS'0 5118.7333'
p951
I64
sS'0 3320.2089'
p952
I1020
sS'0 3114.5644'
p953
I1020
sS'0 4148.4089'
p954
I384
sS'0 8632.3422'
p955
I4
sS'0 5058.4000'
p956
I64
sS'0 4146.2089'
p957
I384
sS'10113.6000'
p958
I4
sS'0 4673.6000'
p959
I144
sS'0 9261.2089'
p960
I4
sS'0 4715.1333'
p961
I144
sS'0 5199.2000'
p962
I64
sS'0 3352.2756'
p963
I1020
sS'0 9051.2756'
p964
I4
sS'0 4103.8133'
p965
I384
sS'0 5177.6000'
p966
I64
sS'0 9068.4222'
p967
I4
sS'0 8795.2089'
p968
I4
sS'0 4054.4222'
p969
I384
sS'0 4683.8667'
p970
I144
sS'0 4102.4756'
p971
I384
sS'0 8618.4889'
p972
I4
sS'0 4713.3333'
p973
I144
sS'0 9324.4889'
p974
I4
sS'0 4117.5600'
p975
I384
sS'0 5206.5333'
p976
I64
sS'0 5173.3333'
p977
I64
sS'0 1879.2089'
p978
I1020
sS'0 4102.2756'
p979
I384
sS'0 2875.6178'
p980
I1020
sS'0 4222.4133'
p981
I384
sS'0 4103.6844'
p982
I384
sS'0 2872.4089'
p983
I1020
sS'0 4206.2756'
p984
I384
sS'0 5040.3333'
p985
I64
sS'0 4187.3422'
p986
I384
sS'0 4179.6267'
p987
I384
sS'0 3082.2089'
p988
I1020
sS'0 4072.6133'
p989
I384
sS'0 5057.6000'
p990
I64
sS'0 2135.2756'
p991
I1020
sS'0 4705.3333'
p992
I144
sS'0 3115.6089'
p993
I1020
sS'0 4100.5511'
p994
I384
sS'10106.9333'
p995
I4
sS'0 9341.3511'
p996
I4
sS'0 4126.2089'
p997
I384
sS'0 5163.7333'
p998
I64
sS'0 8120.2756'
p999
I4
sS'0 4072.7422'
p1000
I384
sS'0 3115.5422'
p1001
I1020
sS'0 4179.6089'
p1002
I384
sS'0 4089.6933'
p1003
I384
sS'10007.8000'
p1004
I24
sS'0 5217.4000'
p1005
I64
sS'0 4103.7467'
p1006
I384
sS'0 4147.4133'
p1007
I384
sS'0 4042.6133'
p1008
I384
sS'0 3113.4222'
p1009
I1020
sS'0 4179.6889'
p1010
I384
sS'0 7894.2089'
p1011
I4
sS'0 4161.4889'
p1012
I384
sS'0 4669.1333'
p1013
I144
sS'10109.1333'
p1014
I4
sS'0 4053.3511'
p1015
I384
sS'0 4657.2000'
p1016
I144
sS'10005.1333'
p1017
I24
sS'0 5116.2667'
p1018
I64
sS'0 5158.4000'
p1019
I64
sS'0 3051.2800'
p1020
I1020
sS'0 9356.4133'
p1021
I4
sS'0 4655.6000'
p1022
I144
sS'0 4161.4089'
p1023
I384
sS'0 9083.4800'
p1024
I4
sS'0 4125.2756'
p1025
I384
sS'0 8811.3422'
p1026
I4
sS'0 4611.6000'
p1027
I144
sS'0 4087.4800'
p1028
I384
sS'0 3114.3511'
p1029
I1020
sS'0 4161.4222'
p1030
I384
sS'0 4221.3511'
p1031
I384
sS'0 4206.4800'
p1032
I384
sS'0 4089.6756'
p1033
I384
sS'0 5201.3333'
p1034
I64
sS'0 3036.3422'
p1035
I1020
sS'0 4643.1333'
p1036
I144
sS'0 3112.4178'
p1037
I1020
sS'0 9116.6222'
p1038
I4
sS'0 4070.4889'
p1039
I384
sS'0 4684.6667'
p1040
I144
sS'0 5222.6667'
p1041
I64
sS'0 4216.3467'
p1042
I384
sS'0 4067.3422'
p1043
I384
sS'0 5159.5333'
p1044
I64
sS'0 4072.6356'
p1045
I384
sS'10003.2667'
p1046
I24
sS'0 8826.2800'
p1047
I4
sS'0 3050.2089'
p1048
I1020
sS'0 4070.4089'
p1049
I384
sS'0 4084.4800'
p1050
I384
sS'0 4104.8311'
p1051
I384
sS'0 4074.6311'
p1052
I384
sS'0 8586.3511'
p1053
I4
sS'0 4701.2000'
p1054
I144
sS'10008.1333'
p1055
I24
sS'0 4131.7067'
p1056
I384
sS'0 3351.3422'
p1057
I1020
sS'0 9356.5556'
p1058
I4
sS'0 9309.4844'
p1059
I4
sS'0 4173.4933'
p1060
I384
sS'0 3095.2800'
p1061
I1020
sS'0 4691.6667'
p1062
I144
sS'0 4074.4222'
p1063
I384
sS'0 9112.2800'
p1064
I4
sS'0 9338.4933'
p1065
I4
sS'0 4177.6978'
p1066
I384
sS'0 9357.7022'
p1067
I4
sS'0 2392.3467'
p1068
I1020
sS'0 3337.3511'
p1069
I1020
sS'0 4656.4667'
p1070
I144
sS'0 4191.2756'
p1071
I384
sS'0 8152.2756'
p1072
I4
sS'0 8859.2800'
p1073
I4
sS'0 4204.4178'
p1074
I384
sS'0 3277.4133'
p1075
I1020
sS'0 3114.4933'
p1076
I1020
sS'0 5118.3333'
p1077
I64
sS'0 5163.3333'
p1078
I64
sS'0 4622.9333'
p1079
I144
sS'0 4209.3467'
p1080
I384
sS'0 2872.3467'
p1081
I1020
sS'0 4104.2089'
p1082
I384
sS'0 4654.4667'
p1083
I144
sS'0 4174.5511'
p1084
I384
sS'0 4085.4089'
p1085
I384
sS'0 4084.5511'
p1086
I384
sS'0 9339.4133'
p1087
I4
sS'0 5130.2000'
p1088
I64
sS'0 3357.7644'
p1089
I1020
sS'0 4081.2756'
p1090
I384
sS'10004.6000'
p1091
I24
sS'0 4623.9333'
p1092
I144
sS'10106.1333'
p1093
I4
sS'0 2795.2800'
p1094
I1020
sS'0 5193.4667'
p1095
I64
sS'0 4141.3467'
p1096
I384
sS'0 4039.4889'
p1097
I384
sS'0 8616.3511'
p1098
I4
sS'0 4059.7778'
p1099
I384
sS'0 4133.6222'
p1100
I384
sS'0 5200.2667'
p1101
I64
sS'0 3068.4133'
p1102
I1020
sS'0 4609.6667'
p1103
I144
sS'0 5174.1333'
p1104
I64
sS'0 4117.7600'
p1105
I384
sS'0 4149.5467'
p1106
I384
sS'0 4059.6178'
p1107
I384
sS'0 4174.4133'
p1108
I384
sS'0 4221.6133'
p1109
I384
sS'0 5193.4000'
p1110
I64
sS'0 3338.3422'
p1111
I1020
sS'0 4154.2089'
p1112
I384
sS'0 4179.2089'
p1113
I384
sS'0 4057.5600'
p1114
I384
sS'0 8811.2800'
p1115
I4
sS'0 4074.8933'
p1116
I384
sS'10103.6667'
p1117
I4
sS'0 5063.1333'
p1118
I64
sS'0 4074.6889'
p1119
I384
sS'0 2602.3422'
p1120
I1020
sS'0 4104.7778'
p1121
I384
sS'0 8376.2089'
p1122
I4
sS'0 4103.7778'
p1123
I384
sS'10005.5333'
p1124
I24
sS'0 2859.4800'
p1125
I1020
sS'0 9111.2800'
p1126
I4
sS'0 8152.4178'
p1127
I4
sS'0 4040.6178'
p1128
I384
sS'0 3323.4844'
p1129
I1020
sS'0 3082.4133'
p1130
I1020
sS'0 4223.7067'
p1131
I384
sS'0 9337.4178'
p1132
I4
sS'0 3308.3511'
p1133
I1020
sS'0 9309.5422'
p1134
I4
sS'0 4146.4933'
p1135
I384
sS'0 4072.5556'
p1136
I384
sS'0 5073.4000'
p1137
I64
sS'0 4116.6178'
p1138
I384
sS'0 4177.3511'
p1139
I384
sS'0 4162.6267'
p1140
I384
sS'0 4053.4222'
p1141
I384
sS'10106.5333'
p1142
I4
sS'0 4164.2089'
p1143
I384
sS'0 5040.4667'
p1144
I64
sS'0 5157.1333'
p1145
I64
sS'0 5086.2667'
p1146
I64
sS'0 4040.6311'
p1147
I384
sS'0 4206.6844'
p1148
I384
sS'0 4222.4933'
p1149
I384
sS'0 4044.9156'
p1150
I384
sS'0 5207.4000'
p1151
I64
sS'0 4191.6933'
p1152
I384
sS'0 3261.3511'
p1153
I1020
sS'0 4594.8000'
p1154
I144
sS'0 3357.5644'
p1155
I1020
sS'0 4204.3511'
p1156
I384
sS'0 9115.6222'
p1157
I4
sS'0 4223.7689'
p1158
I384
sS'0 4220.2800'
p1159
I384
sS'0 9341.4844'
p1160
I4
sS'0 8601.2800'
p1161
I4
sS'0 4058.6089'
p1162
I384
sS'0 4149.6889'
p1163
I384
sS'0 5040.2667'
p1164
I64
sS'0 4159.5644'
p1165
I384
sS'0 4637.9333'
p1166
I144
sS'0 4207.7733'
p1167
I384
sS'0 9275.2756'
p1168
I4
sS'10105.7333'
p1169
I4
sS'0 2855.2756'
p1170
I1020
sS'0 2136.2756'
p1171
I1020
sS'0 4102.6311'
p1172
I384
sS'0 3357.5422'
p1173
I1020
sS'0 4133.4889'
p1174
I384
sS'0 3116.2756'
p1175
I1020
sS'0 4698.9333'
p1176
I144
sS'0 4202.4133'
p1177
I384
sS'0 4146.4756'
p1178
I384
sS'0 4148.3511'
p1179
I384
sS'0 4203.4178'
p1180
I384
sS'0 4222.6356'
p1181
I384
sS'0 4148.7467'
p1182
I384
sS'0 4133.4089'
p1183
I384
sS'0 4223.4089'
p1184
I384
sS'0 4044.6933'
p1185
I384
sS'0 4149.7689'
p1186
I384
sS'0 4057.7600'
p1187
I384
sS'0 3324.5511'
p1188
I1020
sS'0 9352.4178'
p1189
I4
sS'0 4623.1333'
p1190
I144
sS'0 4223.4889'
p1191
I384
sS'0 5215.2667'
p1192
I64
sS'0 5085.2667'
p1193
I64
sS'0 4190.5422'
p1194
I384
sS'0 2633.3511'
p1195
I1020
sS'0 4637.5333'
p1196
I144
sS'0 4685.7333'
p1197
I144
sS'0 3083.4800'
p1198
I1020
sS'0 4206.3422'
p1199
I384
sS'0 5189.1333'
p1200
I64
sS'0 3309.4133'
p1201
I1020
sS'0 9099.5600'
p1202
I4
sS'0 4205.6222'
p1203
I384
sS'0 4686.2667'
p1204
I144
sS'0 4149.8356'
p1205
I384
sS'0 3308.4889'
p1206
I1020
sS'0 4146.2756'
p1207
I384
sS'0 4201.3467'
p1208
I384
sS'0 3325.4089'
p1209
I1020
sS'0 4720.7333'
p1210
I144
sS'0 5158.4667'
p1211
I64
sS'0 4194.6133'
p1212
I384
sS'0 4161.6311'
p1213
I384
sS'0 9277.2089'
p1214
I4
sS'0 4223.6133'
p1215
I384
sS'0 2827.3422'
p1216
I1020
sS'0 4148.6933'
p1217
I384
sS'0 5149.4000'
p1218
I64
sS'0 8859.5556'
p1219
I4
sS'0 9325.5644'
p1220
I4
sS'0 3324.4933'
p1221
I1020
sS'0 4704.2000'
p1222
I144
sS'0 4221.2800'
p1223
I384
sS'0 3325.4889'
p1224
I1020
sS'10014.4000'
p1225
I24
sS'0 5146.2667'
p1226
I64
sS'0 5191.4667'
p1227
I64
sS'0 4118.2756'
p1228
I384
sS'0 4686.2000'
p1229
I144
sS'0 4073.5556'
p1230
I384
sS'0 4054.2756'
p1231
I384
sS'0 8602.2800'
p1232
I4
sS'0 8875.6178'
p1233
I4
sS'0 4593.6000'
p1234
I144
sS'0 4625.4667'
p1235
I144
sS'0 8859.4933'
p1236
I4
sS'0 4177.6178'
p1237
I384
sS'0 8618.4756'
p1238
I4
sS'0 4113.2756'
p1239
I384
sS'0 8826.3511'
p1240
I4
sS'0 3116.4889'
p1241
I1020
sS'0 3308.4222'
p1242
I1020
sS'0 4067.4089'
p1243
I384
sS'0 9067.4133'
p1244
I4
sS'0 4683.9333'
p1245
I144
sS'0 4069.2089'
p1246
I384
sS'0 4173.4756'
p1247
I384
sS'0 9325.4844'
p1248
I4
sS'0 4042.7467'
p1249
I384
sS'0 4220.4756'
p1250
I384
sS'0 9340.5644'
p1251
I4
sS'0 8875.6311'
p1252
I4
sS'0 4058.4933'
p1253
I384
sS'0 9340.3422'
p1254
I4
sS'0 9357.7689'
p1255
I4
sS'0 5173.2667'
p1256
I64
sS'0 5129.4000'
p1257
I64
sS'0 4134.8089'
p1258
I384
sS'0 9339.3467'
p1259
I4
sS'0 5172.2667'
p1260
I64
sS'0 4071.7022'
p1261
I384
sS'0 4097.2089'
p1262
I384
sS'0 8841.2756'
p1263
I4
sS'0 4089.9067'
p1264
I384
sS'0 4161.6178'
p1265
I384
sS'0 4102.5422'
p1266
I384
sS'0 4042.7689'
p1267
I384
sS'0 4132.6178'
p1268
I384
sS'0 4704.5333'
p1269
I144
sS'0 2874.5422'
p1270
I1020
sS'0 4114.5467'
p1271
I384
sS'0 9110.2089'
p1272
I4
sS'0 3325.6222'
p1273
I1020
sS'0 4097.3511'
p1274
I384
sS'0 4219.5511'
p1275
I384
sS'10106.8667'
p1276
I4
sS'0 3354.2756'
p1277
I1020
sS'0 5173.2000'
p1278
I64
sS'0 4222.3467'
p1279
I384
sS'10107.8667'
p1280
I4
sS'0 4667.8667'
p1281
I144
sS'0 4149.3467'
p1282
I384
sS'0 9292.3422'
p1283
I4
sS'0 8634.5600'
p1284
I4
sS'0 4191.5511'
p1285
I384
sS'0 2874.4889'
p1286
I1020
sS'0 9357.6089'
p1287
I4
sS'0 4145.3511'
p1288
I384
sS'0 3080.2089'
p1289
I1020
sS'0 4073.4756'
p1290
I384
sS'0 4087.6978'
p1291
I384
sS'0 3051.2756'
p1292
I1020
sS'0 2874.4089'
p1293
I1020
sS'0 8392.4178'
p1294
I4
sS'0 4117.6178'
p1295
I384
sS'0 9341.6978'
p1296
I4
sS'0 4703.8000'
p1297
I144
sS'0 4086.6133'
p1298
I384
sS'0 8843.3467'
p1299
I4
sS'0 5044.6667'
p1300
I64
sS'0 4133.3422'
p1301
I384
sS'0 9340.6178'
p1302
I4
sS'0 4068.4133'
p1303
I384
sS'0 5129.3333'
p1304
I64
sS'0 4119.8222'
p1305
I384
sS'0 4043.4133'
p1306
I384
sS'0 4654.7333'
p1307
I144
sS'0 4114.4222'
p1308
I384
sS'0 4716.8000'
p1309
I144
sS'0 8152.3422'
p1310
I4
sS'0 4042.4889'
p1311
I384
sS'0 1654.2089'
p1312
I1020
sS'0 4179.8178'
p1313
I384
sS'0 4219.2800'
p1314
I384
sS'0 2377.4178'
p1315
I1020
sS'0 4223.8444'
p1316
I384
sS'0 4684.5333'
p1317
I144
sS'0 4687.3333'
p1318
I144
sS'0 3322.3511'
p1319
I1020
sS'0 4193.5644'
p1320
I384
sS'0 4578.8667'
p1321
I144
sS'0 9245.2800'
p1322
I4
sS'0 4174.2089'
p1323
I384
sS'0 5088.8000'
p1324
I64
sS'0 3353.4756'
p1325
I1020
sS'0 4685.2000'
p1326
I144
sS'0 4082.2800'
p1327
I384
sS'0 4070.4756'
p1328
I384
sS'0 4652.6000'
p1329
I144
sS'0 4117.7556'
p1330
I384
sS'0 4179.8356'
p1331
I384
sS'0 4188.4933'
p1332
I384
sS'0 5040.6000'
p1333
I64
sS'0 4116.4222'
p1334
I384
sS'0 4056.4756'
p1335
I384
sS'10005.8000'
p1336
I24
sS'0 4163.8222'
p1337
I384
sS'0 4058.5600'
p1338
I384
sS'0 4042.4222'
p1339
I384
sS'0 4043.8133'
p1340
I384
sS'0 2842.2089'
p1341
I1020
sS'0 4147.4800'
p1342
I384
sS'0 3068.4800'
p1343
I1020
sS'0 4089.7422'
p1344
I384
sS'0 8634.2089'
p1345
I4
sS'0 3341.6844'
p1346
I1020
sS'0 4643.2667'
p1347
I144
sS'0 4562.8000'
p1348
I144
sS'0 9082.4089'
p1349
I4
sS'0 4101.5511'
p1350
I384
sS'0 4207.4889'
p1351
I384
sS'0 4116.4089'
p1352
I384
sS'0 9307.4222'
p1353
I4
sS'0 3116.5422'
p1354
I1020
sS'0 4177.5467'
p1355
I384
sS'10003.1333'
p1356
I24
sS'10004.5333'
p1357
I24
sS'0 5117.6667'
p1358
I64
sS'0 3095.2756'
p1359
I1020
sS'0 4720.3333'
p1360
I144
sS'0 8634.5556'
p1361
I4
sS'0 4074.7067'
p1362
I384
sS'0 4719.5333'
p1363
I144
sS'0 4193.7644'
p1364
I384
sS'0 4104.4844'
p1365
I384
sS'0 9064.2089'
p1366
I4
sS'0 4088.6978'
p1367
I384
sS'0 4177.6311'
p1368
I384
sS'0 4131.6844'
p1369
I384
sS'0 2392.2756'
p1370
I1020
sS'0 9357.6311'
p1371
I4
sS'0 4145.4089'
p1372
I384
sS'0 4119.6889'
p1373
I384
sS'0 4177.4844'
p1374
I384
sS'0 5164.7333'
p1375
I64
sS'0 3115.4800'
p1376
I1020
sS'0 2634.2089'
p1377
I1020
sS'0 4712.8000'
p1378
I144
sS'0 9356.7067'
p1379
I4
sS'0 5055.4000'
p1380
I64
sS'0 4622.8000'
p1381
I144
sS'0 4119.6089'
p1382
I384
sS'0 4164.5511'
p1383
I384
sS'0 9339.2756'
p1384
I4
sS'0 4073.8222'
p1385
I384
sS'0 4579.4000'
p1386
I144
sS'0 3293.4800'
p1387
I1020
sS'0 4207.4089'
p1388
I384
sS'10010.6000'
p1389
I24
sS'0 4145.4889'
p1390
I384
sS'0 4204.5600'
p1391
I384
sS'0 3293.4756'
p1392
I1020
sS'0 4218.2089'
p1393
I384
sS'0 8377.3511'
p1394
I4
sS'0 4699.1333'
p1395
I144
sS'0 4044.4844'
p1396
I384
sS'0 2634.4222'
p1397
I1020
sS'0 4113.4222'
p1398
I384
sS'0 5055.2667'
p1399
I64
sS'0 4712.4667'
p1400
I144
sS'0 4132.3422'
p1401
I384
sS'0 4218.4933'
p1402
I384
sS'0 4147.2756'
p1403
I384
sS'0 4163.6133'
p1404
I384
sS'0 4706.6667'
p1405
I144
sS'0 9116.5556'
p1406
I4
sS'0 4141.2756'
p1407
I384
sS'10008.4000'
p1408
I24
sS'0 4133.7511'
p1409
I384
sS'0 4209.8311'
p1410
I384
sS'0 9114.3511'
p1411
I4
sS'0 4217.4178'
p1412
I384
sS'0 4129.3511'
p1413
I384
sS'0 4130.4933'
p1414
I384
sS'0 4073.7022'
p1415
I384
sS'0 4044.5467'
p1416
I384
sS'0 4715.7333'
p1417
I144
sS'0 5044.3333'
p1418
I64
sS'0 4219.4933'
p1419
I384
sS'0 4130.6311'
p1420
I384
sS'0 4149.4178'
p1421
I384
sS'0 2875.6222'
p1422
I1020
sS'10105.8667'
p1423
I4
sS'0 4057.2756'
p1424
I384
sS'0 4133.6978'
p1425
I384
sS'0 3113.2800'
p1426
I1020
sS'0 5109.2000'
p1427
I64
sS'0 8617.4178'
p1428
I4
sS'0 4207.6222'
p1429
I384
sS'0 4086.6756'
p1430
I384
sS'0 2633.4089'
p1431
I1020
sS'0 8858.4756'
p1432
I4
sS'10004.1333'
p1433
I24
sS'0 4102.7689'
p1434
I384
sS'0 3356.2800'
p1435
I1020
sS'0 4698.4667'
p1436
I144
sS'0 4069.4933'
p1437
I384
sS'0 4642.3333'
p1438
I144
sS'0 4689.4000'
p1439
I144
sS'0 4190.2089'
p1440
I384
sS'0 4041.6267'
p1441
I384
sS'0 4691.1333'
p1442
I144
sS'0 3353.2800'
p1443
I1020
sS'0 4157.4133'
p1444
I384
sS'0 3334.2089'
p1445
I1020
sS'0 5041.5333'
p1446
I64
sS'0 8633.4933'
p1447
I4
sS'0 4204.2756'
p1448
I384
sS'0 8810.2089'
p1449
I4
sS'0 3325.3511'
p1450
I1020
sS'0 4652.2000'
p1451
I144
sS'0 2875.5422'
p1452
I1020
sS'0 4723.8000'
p1453
I144
sS'0 3306.2800'
p1454
I1020
sS'0 8858.3467'
p1455
I4
sS'0 4057.4756'
p1456
I384
sS'0 9114.5600'
p1457
I4
sS'0 4119.5511'
p1458
I384
sS'0 5203.1333'
p1459
I64
sS'0 8858.2756'
p1460
I4
sS'0 4143.4222'
p1461
I384
sS'0 4086.6933'
p1462
I384
sS'0 4204.5467'
p1463
I384
sS'0 4102.7422'
p1464
I384
sS'0 4132.7422'
p1465
I384
sS'0 4059.3422'
p1466
I384
sS'0 4702.2667'
p1467
I144
sS'0 4675.9333'
p1468
I144
sS'0 4069.4756'
p1469
I384
sS'0 9261.3467'
p1470
I4
sS'10003.5333'
p1471
I24
sS'0 8843.2800'
p1472
I4
sS'0 8632.3467'
p1473
I4
sS'0 4146.5422'
p1474
I384
sS'0 4719.1333'
p1475
I144
sS'0 4115.5600'
p1476
I384
sS'0 3083.4756'
p1477
I1020
sS'0 5054.4000'
p1478
I64
sS'0 9116.2800'
p1479
I4
sS'0 4203.4889'
p1480
I384
sS'10008.8000'
p1481
I24
sS'0 3322.4089'
p1482
I1020
sS'0 2393.2089'
p1483
I1020
sS'0 4148.4222'
p1484
I384
sS'0 4188.2800'
p1485
I384
sS'0 4209.8089'
p1486
I384
sS'0 3052.2089'
p1487
I1020
sS'0 5085.1333'
p1488
I64
sS'0 9355.2756'
p1489
I4
sS'0 4055.4756'
p1490
I384
sS'0 4072.3467'
p1491
I384
sS'0 3098.2800'
p1492
I1020
sS'0 4643.8000'
p1493
I144
sS'0 5098.1333'
p1494
I64
sS'10014.6667'
p1495
I24
sS'0 5142.1333'
p1496
I64
sS'0 5209.5333'
p1497
I64
sS'0 8345.2089'
p1498
I4
sS'0 9097.3467'
p1499
I4
sS'0 9354.4133'
p1500
I4
sS'0 4102.6978'
p1501
I384
sS'0 4044.4933'
p1502
I384
sS'0 4682.7333'
p1503
I144
sS'0 9290.2800'
p1504
I4
sS'0 4042.6311'
p1505
I384
sS'0 2872.4222'
p1506
I1020
sS'0 4194.5467'
p1507
I384
sS'0 3083.2756'
p1508
I1020
sS'0 4089.6978'
p1509
I384
sS'0 4147.5511'
p1510
I384
sS'0 4103.7422'
p1511
I384
sS'0 4209.4089'
p1512
I384
sS'0 4706.2000'
p1513
I144
sS'0 9324.5556'
p1514
I4
sS'0 4118.3511'
p1515
I384
sS'0 2393.4133'
p1516
I1020
sS'0 4668.4667'
p1517
I144
sS'0 9115.3511'
p1518
I4
sS'0 4209.4889'
p1519
I384
sS'0 4113.3422'
p1520
I384
sS'10006.8000'
p1521
I24
sS'0 5141.2000'
p1522
I64
sS'0 4220.4889'
p1523
I384
sS'0 9340.4222'
p1524
I4
sS'0 9067.3467'
p1525
I4
sS'0 8872.2089'
p1526
I4
sS'0 5044.7333'
p1527
I64
sS'0 3354.2800'
p1528
I1020
sS'0 4683.4000'
p1529
I144
sS'0 3293.3422'
p1530
I1020
sS'0 5069.4667'
p1531
I64
sS'0 3339.2800'
p1532
I1020
sS'0 4220.5422'
p1533
I384
sS'0 4219.2756'
p1534
I384
sS'0 9356.4178'
p1535
I4
sS'0 4042.6178'
p1536
I384
sS'0 4125.2800'
p1537
I384
sS'0 5059.7333'
p1538
I64
sS'0 4147.4178'
p1539
I384
sS'0 4220.4089'
p1540
I384
sS'0 4087.4844'
p1541
I384
sS'0 4194.4133'
p1542
I384
sS'0 4102.3511'
p1543
I384
sS'10104.8667'
p1544
I4
sS'0 4704.2667'
p1545
I144
sS'0 4156.2089'
p1546
I384
sS'0 8392.2800'
p1547
I4
sS'0 4190.6089'
p1548
I384
sS'0 4132.6800'
p1549
I384
sS'0 3100.6222'
p1550
I1020
sS'0 5163.5333'
p1551
I64
sS'0 4039.4222'
p1552
I384
sS'0 5072.6667'
p1553
I64
sS'0 4072.6889'
p1554
I384
sS'0 4066.3467'
p1555
I384
sS'0 4159.4889'
p1556
I384
sS'0 4705.4667'
p1557
I144
sS'0 9116.6267'
p1558
I4
sS'0 4129.4889'
p1559
I384
sS'0 4149.2756'
p1560
I384
sS'0 5132.3333'
p1561
I64
sS'0 9309.4089'
p1562
I4
sS'0 4159.4089'
p1563
I384
sS'0 8135.2756'
p1564
I4
sS'0 4070.3422'
p1565
I384
sS'0 4087.5467'
p1566
I384
sS'0 9308.4933'
p1567
I4
sS'0 4104.8356'
p1568
I384
sS'10114.8000'
p1569
I4
sS'0 9309.4889'
p1570
I4
sS'0 2632.2800'
p1571
I1020
sS'0 4129.4089'
p1572
I384
sS'0 5204.3333'
p1573
I64
sS'0 4626.7333'
p1574
I144
sS'0 4115.4222'
p1575
I384
sS'0 4164.9067'
p1576
I384
sS'10002.5333'
p1577
I24
sS'0 8873.4133'
p1578
I4
sS'0 4119.9156'
p1579
I384
sS'0 4087.5644'
p1580
I384
sS'0 2392.3422'
p1581
I1020
sS'0 9325.2089'
p1582
I4
sS'0 4203.2800'
p1583
I384
sS'0 9082.2756'
p1584
I4
sS'0 4101.2089'
p1585
I384
sS'10109.7333'
p1586
I4
sS'0 9114.2800'
p1587
I4
sS'0 8875.2089'
p1588
I4
sS'0 3340.2089'
p1589
I1020
sS'0 4111.2756'
p1590
I384
sS'0 2869.2089'
p1591
I1020
sS'0 4684.4000'
p1592
I144
sS'0 8120.2089'
p1593
I4
sS'0 4193.6311'
p1594
I384
sS'0 4207.2756'
p1595
I384
sS'0 2872.3422'
p1596
I1020
sS'0 4209.3422'
p1597
I384
sS'0 4104.6978'
p1598
I384
sS'0 4178.6889'
p1599
I384
sS'0 4084.4133'
p1600
I384
sS'0 3341.6178'
p1601
I1020
sS'0 9339.4178'
p1602
I4
sS'0 9115.4756'
p1603
I4
sS'0 4088.8089'
p1604
I384
sS'0 5119.4000'
p1605
I64
sS'10002.9333'
p1606
I24
sS'0 3357.7600'
p1607
I1020
sS'0 9357.6844'
p1608
I4
sS'0 8554.2089'
p1609
I4
sS'0 3100.4844'
p1610
I1020
sS'0 4068.4800'
p1611
I384
sS'0 4684.8667'
p1612
I144
sS'0 2874.2800'
p1613
I1020
sS'0 2872.2089'
p1614
I1020
sS'0 4163.5600'
p1615
I384
sS'0 4653.8667'
p1616
I144
sS'0 4637.3333'
p1617
I144
sS'0 5042.7333'
p1618
I64
sS'0 4563.6667'
p1619
I144
sS'0 3307.4222'
p1620
I1020
sS'0 4059.7733'
p1621
I384
sS'0 3068.4178'
p1622
I1020
sS'0 9350.2756'
p1623
I4
sS'0 5117.5333'
p1624
I64
sS'0 2631.3511'
p1625
I1020
sS'0 4687.8667'
p1626
I144
sS'0 4119.6756'
p1627
I384
sS'0 4172.2800'
p1628
I384
sS'0 4104.7556'
p1629
I384
sS'0 4720.4667'
p1630
I144
sS'0 4207.4756'
p1631
I384
sS'0 4719.6667'
p1632
I144
sS'0 4700.5333'
p1633
I144
sS'0 4221.5511'
p1634
I384
sS'0 4113.3511'
p1635
I384
sS'0 2602.4089'
p1636
I1020
sS'0 8376.3422'
p1637
I4
sS'0 4074.8978'
p1638
I384
sS'0 2826.2800'
p1639
I1020
sS'0 4088.7778'
p1640
I384
sS'0 4084.4756'
p1641
I384
sS'0 2873.4089'
p1642
I1020
sS'0 5223.4667'
p1643
I64
sS'0 4104.7733'
p1644
I384
sS'0 9324.4844'
p1645
I4
sS'0 5214.2000'
p1646
I64
sS'0 4141.3422'
p1647
I384
sS'0 3323.4800'
p1648
I1020
sS'0 4204.3422'
p1649
I384
sS'0 5087.7333'
p1650
I64
sS'0 4163.7600'
p1651
I384
sS'0 4134.3511'
p1652
I384
sS'0 3098.4933'
p1653
I1020
sS'10014.2000'
p1654
I24
sS'0 4688.9333'
p1655
I144
sS'0 9066.2089'
p1656
I4
sS'0 4607.5333'
p1657
I144
sS'0 4675.6000'
p1658
I144
sS'0 4203.3467'
p1659
I384
sS'0 4073.6756'
p1660
I384
sS'0 4189.4800'
p1661
I384
sS'0 5175.4667'
p1662
I64
sS'0 4595.6000'
p1663
I144
sS'0 4142.2756'
p1664
I384
sS'0 4206.6800'
p1665
I384
sS'0 5143.2000'
p1666
I64
sS'0 4054.4889'
p1667
I384
sS'0 9337.4222'
p1668
I4
sS'0 8618.4222'
p1669
I4
sS'0 3352.4222'
p1670
I1020
sS'0 2859.5467'
p1671
I1020
sS'0 4102.6178'
p1672
I384
sS'0 4191.6978'
p1673
I384
sS'0 4148.4889'
p1674
I384
sS'0 5222.1333'
p1675
I64
sS'0 2859.4844'
p1676
I1020
sS'0 3357.5600'
p1677
I1020
sS'0 2602.4222'
p1678
I1020
sS'0 4086.4089'
p1679
I384
sS'0 9355.4178'
p1680
I4
sS'0 4040.6133'
p1681
I384
sS'0 3084.5422'
p1682
I1020
sS'0 5177.2667'
p1683
I64
sS'0 4159.5600'
p1684
I384
sS'10012.2667'
p1685
I24
sS'0 4085.6267'
p1686
I384
sS'0 4118.6133'
p1687
I384
sS'0 4053.4844'
p1688
I384
sS'0 8393.3422'
p1689
I4
sS'0 5102.1333'
p1690
I64
sS'0 4157.2800'
p1691
I384
sS'0 4101.6222'
p1692
I384
sS'0 4102.6356'
p1693
I384
sS'0 4178.8267'
p1694
I384
sS'0 2630.2800'
p1695
I1020
sS'0 5052.2667'
p1696
I64
sS'0 4701.7333'
p1697
I144
sS'0 3355.4133'
p1698
I1020
sS'0 4119.9200'
p1699
I384
sS'0 2618.4800'
p1700
I1020
sS'0 4148.7422'
p1701
I384
sS'0 5127.3333'
p1702
I64
sS'0 3335.2756'
p1703
I1020
sS'0 4065.2089'
p1704
I384
sS'0 4131.3511'
p1705
I384
sS'0 4221.6933'
p1706
I384
sS'0 4185.2756'
p1707
I384
sS'0 9115.6267'
p1708
I4
sS'0 4177.6889'
p1709
I384
sS'0 9341.4800'
p1710
I4
sS'0 3110.2089'
p1711
I1020
sS'0 5220.4000'
p1712
I64
sS'0 9352.4133'
p1713
I4
sS'0 9066.3422'
p1714
I4
sS'0 4148.8133'
p1715
I384
sS'0 5209.6000'
p1716
I64
sS'0 5041.4667'
p1717
I64
sS'0 4190.5467'
p1718
I384
sS'0 4642.2000'
p1719
I144
sS'0 8585.2756'
p1720
I4
sS'0 8617.4222'
p1721
I4
sS'0 2150.2089'
p1722
I1020
sS'0 4690.5333'
p1723
I144
sS'0 9099.5644'
p1724
I4
sS'0 4149.8889'
p1725
I384
sS'0 5041.4000'
p1726
I64
sS'0 4547.6000'
p1727
I144
sS'0 2392.4089'
p1728
I1020
sS'0 5103.4667'
p1729
I64
sS'0 9116.2756'
p1730
I4
sS'0 4722.5333'
p1731
I144
sS'0 4055.6178'
p1732
I384
sS'0 5130.4000'
p1733
I64
sS'0 3324.5556'
p1734
I1020
sS'0 4054.3422'
p1735
I384
sS'0 3324.4756'
p1736
I1020
sS'0 4133.6311'
p1737
I384
sS'0 4205.6356'
p1738
I384
sS'0 4149.8089'
p1739
I384
sS'0 4627.2667'
p1740
I144
sS'0 3355.4800'
p1741
I1020
sS'0 3352.2089'
p1742
I1020
sS'0 9084.5511'
p1743
I4
sS'0 4624.8667'
p1744
I144
sS'0 4637.7333'
p1745
I144
sS'0 4177.6133'
p1746
I384
sS'0 4043.6356'
p1747
I384
sS'10003.4000'
p1748
I24
sS'0 4069.5422'
p1749
I384
sS'0 4087.6756'
p1750
I384
sS'0 8632.4133'
p1751
I4
sS'0 4083.2800'
p1752
I384
sS'0 4089.9200'
p1753
I384
sS'0 4161.6356'
p1754
I384
sS'0 9068.4933'
p1755
I4
sS'0 5171.2000'
p1756
I64
sS'0 9051.3467'
p1757
I4
sS'0 4194.4800'
p1758
I384
sS'0 4102.4844'
p1759
I384
sS'0 4067.4222'
p1760
I384
sS'0 5194.4667'
p1761
I64
sS'0 4219.3422'
p1762
I384
sS'0 4132.6133'
p1763
I384
sS'0 4102.5467'
p1764
I384
sS'0 5086.5333'
p1765
I64
sS'0 4118.4089'
p1766
I384
sS'0 8875.6133'
p1767
I4
sS'0 4671.6667'
p1768
I144
sS'0 3325.6267'
p1769
I1020
sS'0 5099.5333'
p1770
I64
sS'0 4222.3422'
p1771
I384
sS'0 4041.2800'
p1772
I384
sS'0 4149.3422'
p1773
I384
sS'0 4578.6667'
p1774
I144
sS'0 9292.3467'
p1775
I4
sS'0 4118.7733'
p1776
I384
sS'0 4547.2667'
p1777
I144
sS'0 9309.2800'
p1778
I4
sS'0 4672.8000'
p1779
I144
sS'0 4202.2800'
p1780
I384
sS'10106.2667'
p1781
I4
sS'0 9340.5600'
p1782
I4
sS'0 4682.6000'
p1783
I144
sS'0 9339.4889'
p1784
I4
sS'0 4595.2000'
p1785
I144
sS'0 4099.5467'
p1786
I384
sS'0 5104.3333'
p1787
I64
sS'0 4086.6178'
p1788
I384
sS'0 4194.4756'
p1789
I384
sS'0 9341.4889'
p1790
I4
sS'0 4072.4133'
p1791
I384
sS'0 5222.5333'
p1792
I64
sS'0 8392.4133'
p1793
I4
sS'0 3112.4222'
p1794
I1020
sS'0 8843.3422'
p1795
I4
sS'0 4717.1333'
p1796
I144
sS'0 3067.3422'
p1797
I1020
sS'0 4114.5422'
p1798
I384
sS'0 9292.2800'
p1799
I4
sS'0 4719.4000'
p1800
I144
sS'0 3356.6756'
p1801
I1020
sS'0 4039.5556'
p1802
I384
sS'0 4721.6000'
p1803
I144
sS'0 9098.3467'
p1804
I4
sS'0 9339.5600'
p1805
I4
sS'0 5087.5333'
p1806
I64
sS'0 2873.2756'
p1807
I1020
sS'0 9116.6933'
p1808
I4
sS'0 4722.6000'
p1809
I144
sS'0 4179.8133'
p1810
I384
sS'0 5044.8667'
p1811
I64
sS'0 5132.4667'
p1812
I64
sS'0 5202.1333'
p1813
I64
sS'0 5209.1333'
p1814
I64
sS'0 4126.3511'
p1815
I384
sS'0 8870.2089'
p1816
I4
sS'0 3099.4933'
p1817
I1020
sS'0 4043.8356'
p1818
I384
sS'0 4072.6756'
p1819
I384
sS'0 5513.8000'
p1820
I1020
sS'0 5156.2667'
p1821
I64
sS'0 2632.2756'
p1822
I1020
sS'0 4131.6756'
p1823
I384
sS'0 4058.5644'
p1824
I384
sS'0 2585.2800'
p1825
I1020
sS'0 4712.6667'
p1826
I144
sS'0 9004.2089'
p1827
I4
sS'0 4716.2667'
p1828
I144
sS'0 5097.2000'
p1829
I64
sS'0 2871.3511'
p1830
I1020
sS'0 4043.8178'
p1831
I384
sS'0 4089.7467'
p1832
I384
sS'0 4071.6356'
p1833
I384
sS'0 9100.4178'
p1834
I4
sS'0 4174.5644'
p1835
I384
sS'0 5163.2667'
p1836
I64
sS'0 4174.3422'
p1837
I384
sS'0 3115.4933'
p1838
I1020
sS'0 3341.6800'
p1839
I1020
sS'0 4223.8489'
p1840
I384
sS'0 5081.2667'
p1841
I64
sS'0 2151.3511'
p1842
I1020
sS'0 3116.5467'
p1843
I1020
sS'0 4684.3333'
p1844
I144
sS'0 4722.1333'
p1845
I144
sS'0 9356.5467'
p1846
I4
sS'0 4074.7022'
p1847
I384
sS'0 4659.9333'
p1848
I144
sS'0 4658.6000'
p1849
I144
sS'0 9115.4889'
p1850
I4
sS'0 4204.5556'
p1851
I384
sS'0 4171.2756'
p1852
I384
sS'0 4131.6800'
p1853
I384
sS'0 5204.4667'
p1854
I64
sS'0 4082.2089'
p1855
I384
sS'0 2391.3422'
p1856
I1020
sS'0 5118.2667'
p1857
I64
sS'0 4132.4933'
p1858
I384
sS'0 4659.2000'
p1859
I144
sS'0 3098.4222'
p1860
I1020
sS'0 9082.3422'
p1861
I4
sS'0 4177.4800'
p1862
I384
sS'0 4220.6356'
p1863
I384
sS'0 3293.4178'
p1864
I1020
sS'0 4721.4000'
p1865
I144
sS'0 4059.8444'
p1866
I384
sS'0 5113.3333'
p1867
I64
sS'0 9115.4089'
p1868
I4
sS'0 5187.4000'
p1869
I64
sS'0 9291.3467'
p1870
I4
sS'0 3051.2089'
p1871
I1020
sS'0 4164.5556'
p1872
I384
sS'0 8634.4889'
p1873
I4
sS'0 9050.2089'
p1874
I4
sS'0 4207.3422'
p1875
I384
sS'0 4194.7467'
p1876
I384
sS'0 9339.4089'
p1877
I4
sS'0 4070.5467'
p1878
I384
sS'0 9307.4089'
p1879
I4
sS'0 4627.7333'
p1880
I144
sS'0 9291.2756'
p1881
I4
sS'0 3100.3511'
p1882
I1020
sS'0 5036.3333'
p1883
I64
sS'0 4104.6222'
p1884
I384
sS'0 2874.2756'
p1885
I1020
sS'0 4117.2756'
p1886
I384
sS'0 5086.1333'
p1887
I64
sS'0 5044.2000'
p1888
I64
sS'10004.7333'
p1889
I24
sS'0 9099.2756'
p1890
I4
sS'0 4132.3467'
p1891
I384
sS'0 3357.6978'
p1892
I1020
sS'0 4162.4933'
p1893
I384
sS'0 4625.1333'
p1894
I144
sS'0 4641.5333'
p1895
I144
sS'0 4658.2000'
p1896
I144
sS'0 5067.3333'
p1897
I64
sS'0 9323.2756'
p1898
I4
sS'0 9099.4756'
p1899
I4
sS'0 4637.2000'
p1900
I144
sS'0 4209.8356'
p1901
I384
sS'0 5221.2000'
p1902
I64
sS'0 4148.8444'
p1903
I384
sS'0 5117.4000'
p1904
I64
sS'0 5126.3333'
p1905
I64
sS'0 4058.8400'
p1906
I384
sS'0 9357.7556'
p1907
I4
sS'0 3339.5467'
p1908
I1020
sS'0 3339.4222'
p1909
I1020
sS'0 9325.3511'
p1910
I4
sS'0 4057.4933'
p1911
I384
sS'0 2875.6267'
p1912
I1020
sS'0 3341.5644'
p1913
I1020
sS'0 5074.7333'
p1914
I64
sS'0 4089.2756'
p1915
I384
sS'0 5113.2000'
p1916
I64
sS'0 9116.4933'
p1917
I4
sS'0 5223.7333'
p1918
I64
sS'0 3245.2800'
p1919
I1020
sS'0 9116.5511'
p1920
I4
sS'0 5143.4667'
p1921
I64
sS'0 4718.2667'
p1922
I144
sS'0 4206.6756'
p1923
I384
sS'10105.6667'
p1924
I4
sS'0 4103.3511'
p1925
I384
sS'0 3357.6756'
p1926
I1020
sS'0 9116.4133'
p1927
I4
sS'10111.2000'
p1928
I4
sS'0 4671.2000'
p1929
I144
sS'0 4148.5511'
p1930
I384
sS'0 4178.7067'
p1931
I384
sS'0 4073.6889'
p1932
I384
sS'0 9276.2089'
p1933
I4
sS'0 4129.2800'
p1934
I384
sS'0 4127.3511'
p1935
I384
sS'0 4607.8000'
p1936
I144
sS'0 4179.3511'
p1937
I384
sS'0 4157.4178'
p1938
I384
sS'0 4044.4800'
p1939
I384
sS'0 4073.7422'
p1940
I384
sS'0 2870.2089'
p1941
I1020
sS'0 2875.5467'
p1942
I1020
sS'0 4707.3333'
p1943
I144
sS'0 4221.5422'
p1944
I384
sS'0 5119.3333'
p1945
I64
sS'0 8858.3422'
p1946
I4
sS'0 4036.3511'
p1947
I384
sS'0 4102.7644'
p1948
I384
sS'0 4073.6089'
p1949
I384
sS'0 4207.6267'
p1950
I384
sS'0 5222.2667'
p1951
I64
sS'0 9052.3511'
p1952
I4
sS'0 4207.7689'
p1953
I384
sS'0 9114.5644'
p1954
I4
sS'10011.1333'
p1955
I24
sS'0 9323.4222'
p1956
I4
sS'10014.8667'
p1957
I24
sS'0 8827.4089'
p1958
I4
sS'0 5204.4000'
p1959
I64
sS'0 9261.2800'
p1960
I4
sS'0 3261.2089'
p1961
I1020
sS'0 4086.6978'
p1962
I384
sS'0 4146.2800'
p1963
I384
sS'0 4102.7467'
p1964
I384
sS'0 5052.1333'
p1965
I64
sS'0 4207.6089'
p1966
I384
sS'0 3116.3467'
p1967
I1020
sS'10009.1333'
p1968
I24
sS'0 7911.3422'
p1969
I4
sS'0 9293.4756'
p1970
I4
sS'0 4133.4133'
p1971
I384
sS'0 4146.5467'
p1972
I384
sS'0 8390.2800'
p1973
I4
sS'0 4194.4178'
p1974
I384
sS'0 8795.2800'
p1975
I4
sS'0 4207.6889'
p1976
I384
sS'0 9341.4756'
p1977
I4
sS'0 5041.6667'
p1978
I64
sS'10113.8000'
p1979
I4
sS'0 4707.7333'
p1980
I144
sS'0 5043.4667'
p1981
I64
sS'10009.9333'
p1982
I24
sS'0 3324.4222'
p1983
I1020
sS'10008.6000'
p1984
I24
sS'0 8618.4800'
p1985
I4
sS'0 4714.4000'
p1986
I144
sS'0 3320.2800'
p1987
I1020
sS'0 4143.4178'
p1988
I384
sS'0 4055.4844'
p1989
I384
sS'10103.8000'
p1990
I4
sS'0 4036.2800'
p1991
I384
sS'0 9324.4800'
p1992
I4
sS'0 4594.8667'
p1993
I144
sS'0 4190.4756'
p1994
I384
sS'0 5103.5333'
p1995
I64
sS'0 3100.4756'
p1996
I1020
sS'0 8875.5600'
p1997
I4
sS'0 8856.2089'
p1998
I4
sS'0 9097.3422'
p1999
I4
sS'0 9355.4933'
p2000
I4
sS'0 9114.5556'
p2001
I4
sS'0 4219.5422'
p2002
I384
sS'0 4089.8933'
p2003
I384
sS'0 5177.5333'
p2004
I64
sS'0 4194.5422'
p2005
I384
sS'0 3082.2800'
p2006
I1020
sS'0 4143.2089'
p2007
I384
sS'0 4713.6000'
p2008
I144
sS'0 4071.4933'
p2009
I384
sS'0 5149.5333'
p2010
I64
sS'10104.6667'
p2011
I4
sS'0 2843.4889'
p2012
I1020
sS'0 2618.2089'
p2013
I1020
sS'0 4147.5556'
p2014
I384
sS'0 4179.5600'
p2015
I384
sS'0 4179.6800'
p2016
I384
sS'0 4593.7333'
p2017
I144
sS'0 2843.4089'
p2018
I1020
sS'0 9277.3511'
p2019
I4
sS'0 9324.5511'
p2020
I4
sS'0 3337.4133'
p2021
I1020
sS'0 4113.3467'
p2022
I384
sS'0 4194.6089'
p2023
I384
sS'0 9341.2756'
p2024
I4
sS'0 9067.3422'
p2025
I4
sS'0 4220.4844'
p2026
I384
sS'0 4042.6356'
p2027
I384
sS'0 3097.2756'
p2028
I1020
sS'0 9325.5556'
p2029
I4
sS'0 4043.6800'
p2030
I384
sS'0 3293.3467'
p2031
I1020
sS'0 4099.4800'
p2032
I384
sS'10112.2667'
p2033
I4
sS'0 9340.2756'
p2034
I4
sS'0 4115.2800'
p2035
I384
sS'0 4220.5467'
p2036
I384
sS'0 5153.1333'
p2037
I64
sS'0 5223.3333'
p2038
I64
sS'0 8841.3467'
p2039
I4
sS'0 4170.2800'
p2040
I384
sS'10007.1333'
p2041
I24
sS'0 4669.8000'
p2042
I144
sS'0 4202.4222'
p2043
I384
sS'0 4638.8000'
p2044
I144
sS'0 4209.5644'
p2045
I384
sS'0 5072.4667'
p2046
I64
sS'0 4110.2800'
p2047
I384
sS'0 5086.6667'
p2048
I64
sS'0 4658.8667'
p2049
I144
sS'0 9306.3422'
p2050
I4
sS'0 5073.1333'
p2051
I64
sS'0 3050.2800'
p2052
I1020
sS'0 5133.4000'
p2053
I64
sS'0 9098.2800'
p2054
I4
sS'0 4132.6844'
p2055
I384
sS'0 5055.3333'
p2056
I64
sS'0 3354.3467'
p2057
I1020
sS'0 4638.4000'
p2058
I144
sS'0 4118.7022'
p2059
I384
sS'0 3100.6267'
p2060
I1020
sS'0 5111.3333'
p2061
I64
sS'0 4070.4800'
p2062
I384
sS'0 3111.2756'
p2063
I1020
sS'0 4104.3511'
p2064
I384
sS'0 3098.2756'
p2065
I1020
sS'0 5218.2000'
p2066
I64
sS'0 9292.2756'
p2067
I4
sS'0 4087.5422'
p2068
I384
sS'0 5126.1333'
p2069
I64
sS'10103.2667'
p2070
I4
sS'0 9308.4756'
p2071
I4
sS'0 4193.7600'
p2072
I384
sS'0 4117.6267'
p2073
I384
sS'0 4099.4756'
p2074
I384
sS'0 9357.5600'
p2075
I4
sS'0 5179.2667'
p2076
I64
sS'10011.9333'
p2077
I24
sS'0 4059.9156'
p2078
I384
sS'0 8392.3467'
p2079
I4
sS'0 4223.8133'
p2080
I384
sS'0 4132.4222'
p2081
I384
sS'0 4101.3422'
p2082
I384
sS'0 4103.4889'
p2083
I384
sS'0 4132.7733'
p2084
I384
sS'0 3356.7067'
p2085
I1020
sS'0 8873.4178'
p2086
I4
sS'0 4162.7556'
p2087
I384
sS'0 9098.2756'
p2088
I4
sS'0 3095.2089'
p2089
I1020
sS'0 4087.4089'
p2090
I384
sS'0 4639.7333'
p2091
I144
sS'0 4177.7067'
p2092
I384
sS'0 3341.6756'
p2093
I1020
sS'0 5156.3333'
p2094
I64
sS'0 4209.8178'
p2095
I384
sS'0 4056.4089'
p2096
I384
sS'0 5050.1333'
p2097
I64
sS'0 4041.4844'
p2098
I384
sS'0 4070.3467'
p2099
I384
sS'0 4720.2667'
p2100
I144
sS'0 4193.6356'
p2101
I384
sS'0 4134.6978'
p2102
I384
sS'0 4088.4178'
p2103
I384
sS'0 4699.6667'
p2104
I144
sS'0 9100.2800'
p2105
I4
sS'0 2841.3511'
p2106
I1020
sS'0 4074.8756'
p2107
I384
sS'0 4685.4667'
p2108
I144
sS'0 3341.6133'
p2109
I1020
sS'0 4163.5422'
p2110
I384
sS'0 4101.5644'
p2111
I384
sS'0 4653.3333'
p2112
I144
sS'0 4119.9111'
p2113
I384
sS'0 9322.4178'
p2114
I4
sS'0 4074.6756'
p2115
I384
sS'0 5071.4000'
p2116
I64
sS'0 3307.2756'
p2117
I1020
sS'0 9357.6800'
p2118
I4
sS'0 4563.4667'
p2119
I144
sS'0 2856.2089'
p2120
I1020
sS'0 9113.4133'
p2121
I4
sS'0 3098.4756'
p2122
I1020
sS'0 4145.4756'
p2123
I384
sS'0 3113.4933'
p2124
I1020
sS'0 4163.5644'
p2125
I384
sS'0 8811.2089'
p2126
I4
sS'0 8809.2089'
p2127
I4
sS'0 5084.2667'
p2128
I64
sS'0 3116.6933'
p2129
I1020
sS'0 4193.7556'
p2130
I384
sS'0 5162.6000'
p2131
I64
sS'0 4104.7511'
p2132
I384
sS'0 4722.6667'
p2133
I144
sS'0 4220.6089'
p2134
I384
sS'0 5132.6000'
p2135
I64
sS'0 4203.4933'
p2136
I384
sS'0 4221.5556'
p2137
I384
sS'0 8376.3467'
p2138
I4
sS'0 4074.6800'
p2139
I384
sS'0 4088.7733'
p2140
I384
sS'0 4087.7644'
p2141
I384
sS'0 4171.3422'
p2142
I384
sS'0 4723.2667'
p2143
I144
sS'0 4607.8667'
p2144
I144
sS'0 4163.7733'
p2145
I384
sS'0 4656.2000'
p2146
I144
sS'0 4697.7333'
p2147
I144
sS'10213.8000'
p2148
I4
sS'0 4641.2667'
p2149
I144
sS'0 4117.2800'
p2150
I384
sS'0 4163.7644'
p2151
I384
sS'0 4194.2089'
p2152
I384
sS'0 4148.8311'
p2153
I384
sS'0 3051.3422'
p2154
I1020
sS'0 8873.2756'
p2155
I4
sS'0 9020.2089'
p2156
I4
sS'0 4130.4222'
p2157
I384
sS'0 3115.3511'
p2158
I1020
sS'0 2825.2089'
p2159
I1020
sS'0 3339.4800'
p2160
I1020
sS'0 4159.4222'
p2161
I384
sS'0 3339.4756'
p2162
I1020
sS'0 4051.2756'
p2163
I384
sS'0 5036.2000'
p2164
I64
sS'0 2859.5422'
p2165
I1020
sS'0 5199.1333'
p2166
I64
sS'0 4119.8756'
p2167
I384
sS'0 5127.2000'
p2168
I64
sS'0 4102.6133'
p2169
I384
sS'0 9355.4133'
p2170
I4
sS'0 4041.4933'
p2171
I384
sS'0 4178.4756'
p2172
I384
sS'0 9099.3422'
p2173
I4
sS'0 3081.2089'
p2174
I1020
sS'0 4162.5600'
p2175
I384
sS'0 8827.3511'
p2176
I4
sS'0 4118.6178'
p2177
I384
sS'0 3307.4133'
p2178
I1020
sS'0 8393.3467'
p2179
I4
sS'0 4178.8222'
p2180
I384
sS'0 4133.4800'
p2181
I384
sS'0 4189.5467'
p2182
I384
sS'0 4054.5644'
p2183
I384
sS'0 4177.4222'
p2184
I384
sS'10109.8000'
p2185
I4
sS'0 4715.6667'
p2186
I144
sS'0 9111.2089'
p2187
I4
sS'0 4119.7467'
p2188
I384
sS'0 4189.4844'
p2189
I384
sS'0 5207.7333'
p2190
I64
sS'0 2618.4844'
p2191
I1020
sS'0 9357.3511'
p2192
I4
sS'0 4222.6933'
p2193
I384
sS'0 4177.6933'
p2194
I384
sS'0 2857.4178'
p2195
I1020
sS'0 4220.3467'
p2196
I384
sS'0 9277.4178'
p2197
I4
sS'0 3337.2089'
p2198
I1020
sS'0 5188.4667'
p2199
I64
sS'0 5223.6000'
p2200
I64
sS'0 3084.5467'
p2201
I1020
sS'0 8842.2800'
p2202
I4
sS'0 3067.3467'
p2203
I1020
sS'0 9066.3467'
p2204
I4
sS'0 4037.4178'
p2205
I384
sS'0 4610.6000'
p2206
I144
sS'10010.4000'
p2207
I24
sS'0 2376.2800'
p2208
I1020
sS'10013.4000'
p2209
I24
sS'0 3083.4222'
p2210
I1020
sS'0 4223.5600'
p2211
I384
sS'0 5038.2667'
p2212
I64
sS'0 4222.7511'
p2213
I384
sS'10005.8667'
p2214
I24
sS'0 4205.4222'
p2215
I384
sS'0 4689.5333'
p2216
I144
sS'0 4055.6356'
p2217
I384
sS'0 4707.2667'
p2218
I144
sS'0 5088.1333'
p2219
I64
sS'0 5086.4000'
p2220
I64
sS'0 2634.4933'
p2221
I1020
sS'0 4659.3333'
p2222
I144
sS'0 3340.6267'
p2223
I1020
sS'0 4052.4178'
p2224
I384
sS'0 8855.2756'
p2225
I4
sS'0 2875.4756'
p2226
I1020
sS'0 8858.4844'
p2227
I4
sS'0 4707.2000'
p2228
I144
sS'0 5129.1333'
p2229
I64
sS'0 5119.2000'
p2230
I64
sS'0 5185.1333'
p2231
I64
sS'0 8615.2089'
p2232
I4
sS'0 2152.4178'
p2233
I1020
sS'0 4674.1333'
p2234
I144
sS'0 3355.5467'
p2235
I1020
sS'0 4611.5333'
p2236
I144
sS'0 4072.6222'
p2237
I384
sS'10111.8667'
p2238
I4
sS'0 3323.3467'
p2239
I1020
sS'0 9112.4222'
p2240
I4
sS'0 3100.4889'
p2241
I1020
sS'0 3355.4844'
p2242
I1020
sS'0 4086.5422'
p2243
I384
sS'0 5218.2667'
p2244
I64
sS'0 4673.1333'
p2245
I144
sS'0 4702.9333'
p2246
I144
sS'0 5102.3333'
p2247
I64
sS'0 4133.8311'
p2248
I384
sS'0 3320.2756'
p2249
I1020
sS'0 4159.3467'
p2250
I384
sS'0 8633.4222'
p2251
I4
sS'0 3100.5422'
p2252
I1020
sS'0 4069.5467'
p2253
I384
sS'0 8632.4178'
p2254
I4
sS'0 4043.6311'
p2255
I384
sS'0 4162.7733'
p2256
I384
sS'0 4215.2756'
p2257
I384
sS'0 3100.4089'
p2258
I1020
sS'0 4056.3511'
p2259
I384
sS'0 4639.2000'
p2260
I144
sS'0 4148.7022'
p2261
I384
sS'0 4194.4844'
p2262
I384
sS'0 4102.4800'
p2263
I384
sS'0 4652.3333'
p2264
I144
sS'0 4118.5422'
p2265
I384
sS'0 3277.2756'
p2266
I1020
sS'0 3066.2756'
p2267
I1020
sS'0 2843.2756'
p2268
I1020
sS'0 4656.6000'
p2269
I144
sS'0 8874.4933'
p2270
I4
sS'0 3080.2756'
p2271
I1020
sS'0 3114.2089'
p2272
I1020
sS'0 2854.2089'
p2273
I1020
sS'0 4578.4667'
p2274
I144
sS'0 9356.2089'
p2275
I4
sS'0 4579.1333'
p2276
I144
sS'0 4697.2667'
p2277
I144
sS'0 2843.4756'
p2278
I1020
sS'0 5103.8000'
p2279
I64
sS'0 4191.4756'
p2280
I384
sS'0 4654.2000'
p2281
I144
sS'0 4683.6000'
p2282
I144
sS'10110.3333'
p2283
I4
sS'0 8602.2089'
p2284
I4
sS'0 4670.4000'
p2285
I144
sS'0 3113.4133'
p2286
I1020
sS'10110.4000'
p2287
I4
sS'0 4672.6000'
p2288
I144
sS'10112.6000'
p2289
I4
sS'0 9051.3422'
p2290
I4
sS'0 3082.2756'
p2291
I1020
sS'0 4103.8089'
p2292
I384
sS'0 4099.5422'
p2293
I384
sS'0 3097.3422'
p2294
I1020
sS'0 4088.2756'
p2295
I384
sS'0 8119.2089'
p2296
I4
sS'0 5066.3333'
p2297
I64
sS'10007.9333'
p2298
I24
sS'0 4132.4889'
p2299
I384
sS'0 4147.7556'
p2300
I384
sS'0 4624.6667'
p2301
I144
sS'0 4706.8000'
p2302
I144
sS'0 5190.5333'
p2303
I64
sS'0 3080.2800'
p2304
I1020
sS'0 3113.2089'
p2305
I1020
sS'0 4705.5333'
p2306
I144
sS'0 9098.3422'
p2307
I4
sS'0 4706.3333'
p2308
I144
sS'0 4209.4933'
p2309
I384
sS'0 8344.2089'
p2310
I4
sS'0 4087.7511'
p2311
I384
sS'0 5132.2667'
p2312
I64
sS'0 4113.4133'
p2313
I384
sS'0 4127.4089'
p2314
I384
sS'0 9116.6978'
p2315
I4
sS'0 9324.2756'
p2316
I4
sS'0 4592.6667'
p2317
I144
sS'0 5070.2000'
p2318
I64
sS'0 3115.4133'
p2319
I1020
sS'0 2858.4178'
p2320
I1020
sS'0 9308.4222'
p2321
I4
sS'0 4043.7733'
p2322
I384
sS'0 4086.6356'
p2323
I384
sS'0 4043.8311'
p2324
I384
sS'0 1895.2756'
p2325
I1020
sS'0 4147.4089'
p2326
I384
sS'0 5185.2000'
p2327
I64
sS'0 4163.8133'
p2328
I384
sS'0 3319.2089'
p2329
I1020
sS'10008.9333'
p2330
I24
sS'0 5223.2000'
p2331
I64
sS'0 4132.4756'
p2332
I384
sS'0 5072.7333'
p2333
I64
sS'0 5163.4667'
p2334
I64
sS'0 4039.5511'
p2335
I384
sS'0 4134.8489'
p2336
I384
sS'0 8393.4222'
p2337
I4
sS'0 4097.2800'
p2338
I384
sS'0 3309.2756'
p2339
I1020
sS'0 4713.4667'
p2340
I144
sS'0 4218.4844'
p2341
I384
sS'10103.3333'
p2342
I4
sS'0 4222.7467'
p2343
I384
sS'0 9116.6356'
p2344
I4
sS'0 4689.1333'
p2345
I144
sS'0 4174.5600'
p2346
I384
sS'0 5111.2000'
p2347
I64
sS'0 9100.4133'
p2348
I4
sS'0 4174.3467'
p2349
I384
sS'0 4104.8133'
p2350
I384
sS'0 3079.2089'
p2351
I1020
sS'0 5087.2667'
p2352
I64
sS'0 4070.4133'
p2353
I384
sS'10011.8000'
p2354
I24
sS'0 3307.3467'
p2355
I1020
sS'0 9356.5422'
p2356
I4
sS'0 4119.8844'
p2357
I384
sS'0 4164.8756'
p2358
I384
sS'0 5206.2667'
p2359
I64
sS'0 4674.9333'
p2360
I144
sS'0 4098.3511'
p2361
I384
sS'0 9274.2089'
p2362
I4
sS'0 4059.8267'
p2363
I384
sS'0 9322.2089'
p2364
I4
sS'0 4111.2089'
p2365
I384
sS'0 4190.6311'
p2366
I384
sS'0 4174.2800'
p2367
I384
sS'0 9115.4844'
p2368
I4
sS'0 4059.7067'
p2369
I384
sS'0 2391.3467'
p2370
I1020
sS'0 5147.2000'
p2371
I64
sS'0 4053.3422'
p2372
I384
sS'0 4119.6800'
p2373
I384
sS'0 7670.2089'
p2374
I4
sS'0 9082.3467'
p2375
I4
sS'0 8826.2756'
p2376
I4
sS'0 4103.8311'
p2377
I384
sS'0 3084.4889'
p2378
I1020
sS'0 4207.4800'
p2379
I384
sS'0 4220.6311'
p2380
I384
sS'0 3293.4133'
p2381
I1020
sS'0 3341.7067'
p2382
I1020
sS'0 4059.8400'
p2383
I384
sS'10110.8667'
p2384
I4
sS'0 4206.4933'
p2385
I384
sS'0 4116.4178'
p2386
I384
sS'0 3309.4844'
p2387
I1020
sS'0 8634.4844'
p2388
I4
sS'0 9291.3422'
p2389
I4
sS'0 4071.6978'
p2390
I384
sS'0 4207.3467'
p2391
I384
sS'0 4193.7022'
p2392
I384
sS'0 4194.7422'
p2393
I384
sS'0 4070.5422'
p2394
I384
sS'0 5134.8000'
p2395
I64
sS'0 4056.5556'
p2396
I384
sS'0 3035.2756'
p2397
I1020
sS'0 3052.3422'
p2398
I1020
sS'0 4074.7422'
p2399
I384
sS'0 4653.9333'
p2400
I144
sS'0 3357.6933'
p2401
I1020
sS'0 5134.4000'
p2402
I64
sS'0 4579.9333'
p2403
I144
sS'0 4563.7333'
p2404
I144
sS'0 9260.2800'
p2405
I4
sS'0 9115.5467'
p2406
I4
sS'0 8859.3511'
p2407
I4
sS'0 4622.7333'
p2408
I144
sS'0 4040.5644'
p2409
I384
sS'0 3354.4844'
p2410
I1020
sS'0 3099.3511'
p2411
I1020
sS'0 9097.3511'
p2412
I4
sS'0 4163.4133'
p2413
I384
sS'0 8150.2756'
p2414
I4
sS'10006.1333'
p2415
I24
sS'0 9113.4800'
p2416
I4
sS'0 4088.6267'
p2417
I384
sS'0 9100.6311'
p2418
I4
sS'0 8377.2756'
p2419
I4
sS'0 9096.2800'
p2420
I4
sS'0 4088.4800'
p2421
I384
sS'0 4087.2800'
p2422
I384
sS'0 4058.8444'
p2423
I384
sS'0 4081.2089'
p2424
I384
sS'0 3339.5422'
p2425
I1020
sS'10112.2000'
p2426
I4
sS'0 3099.5644'
p2427
I1020
sS'0 5058.2667'
p2428
I64
sS'0 4088.8311'
p2429
I384
sS'0 3113.3467'
p2430
I1020
sS'0 5161.4000'
p2431
I64
sS'0 3341.5600'
p2432
I1020
sS'0 3356.2089'
p2433
I1020
sS'0 8376.2756'
p2434
I4
sS'0 3275.2800'
p2435
I1020
sS'0 8873.2089'
p2436
I4
sS'0 5133.8000'
p2437
I64
sS'0 4178.4889'
p2438
I384
sS'0 4723.1333'
p2439
I144
sS'0 4056.4844'
p2440
I384
sS'0 5129.4667'
p2441
I64
sS'0 4577.8667'
p2442
I144
sS'0 5193.3333'
p2443
I64
sS'0 9355.5600'
p2444
I4
sS'0 4131.3422'
p2445
I384
sS'0 4178.5422'
p2446
I384
sS'0 4177.3467'
p2447
I384
sS'0 4099.2089'
p2448
I384
sS'0 9113.4756'
p2449
I4
sS'0 4148.5556'
p2450
I384
sS'0 4178.4089'
p2451
I384
sS'0 8873.3422'
p2452
I4
sS'0 4177.2756'
p2453
I384
sS'0 4058.3422'
p2454
I384
sS'0 5143.3333'
p2455
I64
sS'0 9098.4089'
p2456
I4
sS'0 9096.3511'
p2457
I4
sS'0 4073.7467'
p2458
I384
sS'0 5118.5333'
p2459
I64
sS'0 5098.4667'
p2460
I64
sS'0 5170.1333'
p2461
I64
sS'0 2872.2800'
p2462
I1020
sS'0 3338.3511'
p2463
I1020
sS'0 9321.2800'
p2464
I4
sS'0 4222.7689'
p2465
I384
sS'0 4205.6089'
p2466
I384
sS'0 4223.3422'
p2467
I384
sS'0 4668.2667'
p2468
I144
sS'10108.2667'
p2469
I4
sS'0 4162.4089'
p2470
I384
sS'0 4205.6311'
p2471
I384
sS'0 9355.3467'
p2472
I4
sS'0 2873.4889'
p2473
I1020
sS'0 3067.2800'
p2474
I1020
sS'0 3261.3422'
p2475
I1020
sS'0 9099.5511'
p2476
I4
sS'0 9275.2800'
p2477
I4
sS'0 3067.2756'
p2478
I1020
sS'0 5114.1333'
p2479
I64
sS'0 3306.2089'
p2480
I1020
sS'10112.8667'
p2481
I4
sS'0 3116.3422'
p2482
I1020
sS'0 4044.7022'
p2483
I384
sS'0 4054.4933'
p2484
I384
sS'0 4222.4889'
p2485
I384
sS'0 9100.6222'
p2486
I4
sS'0 8827.4222'
p2487
I4
sS'0 4044.6889'
p2488
I384
sS'0 3052.2800'
p2489
I1020
sS'0 4133.4178'
p2490
I384
sS'0 5115.3333'
p2491
I64
sS'0 9115.6178'
p2492
I4
sS'0 9100.5556'
p2493
I4
sS'0 4220.2756'
p2494
I384
sS'0 3098.2089'
p2495
I1020
sS'0 8570.2089'
p2496
I4
sS'0 4133.8089'
p2497
I384
sS'0 8875.5422'
p2498
I4
sS'0 8618.4844'
p2499
I4
sS'0 4057.7511'
p2500
I384
sS'0 8345.2800'
p2501
I4
sS'0 9052.2756'
p2502
I4
sS'0 3114.4756'
p2503
I1020
sS'0 4140.2089'
p2504
I384
sS'0 3357.4133'
p2505
I1020
sS'0 4058.7422'
p2506
I384
sS'0 5175.2667'
p2507
I64
sS'0 9115.2089'
p2508
I4
sS'10103.4667'
p2509
I4
sS'0 8875.5644'
p2510
I4
sS'0 4594.2000'
p2511
I144
sS'0 7911.3467'
p2512
I4
sS'0 2857.2756'
p2513
I1020
sS'0 9116.4844'
p2514
I4
sS'0 8374.2089'
p2515
I4
sS'0 4132.7067'
p2516
I384
sS'0 2376.3511'
p2517
I1020
sS'0 4088.7511'
p2518
I384
sS'10104.4667'
p2519
I4
sS'0 4683.1333'
p2520
I144
sS'0 9100.4933'
p2521
I4
sS'0 4686.5333'
p2522
I144
sS'0 5204.1333'
p2523
I64
sS'0 5220.5333'
p2524
I64
sS'0 9065.2756'
p2525
I4
sS'0 3325.4933'
p2526
I1020
sS'0 4686.9333'
p2527
I144
sS'0 4055.4222'
p2528
I384
sS'0 4221.6311'
p2529
I384
sS'0 4057.6178'
p2530
I384
sS'0 5146.5333'
p2531
I64
sS'0 4179.5644'
p2532
I384
sS'0 5218.1333'
p2533
I64
sS'0 3114.2756'
p2534
I1020
sS'0 4637.8000'
p2535
I144
sS'0 5102.2000'
p2536
I64
sS'0 3339.2089'
p2537
I1020
sS'0 4173.4089'
p2538
I384
sS'0 4175.4756'
p2539
I384
sS'0 5081.2000'
p2540
I64
sS'0 3277.2800'
p2541
I1020
sS'0 4702.4000'
p2542
I144
sS'0 9067.4089'
p2543
I4
sS'0 4720.6000'
p2544
I144
sS'0 8843.4933'
p2545
I4
sS'0 9325.4933'
p2546
I4
sS'0 4193.4889'
p2547
I384
sS'0 4220.4800'
p2548
I384
sS'0 4073.4089'
p2549
I384
sS'0 9325.5511'
p2550
I4
sS'0 3324.4844'
p2551
I1020
sS'0 3116.4844'
p2552
I1020
sS'10011.6000'
p2553
I24
sS'10105.1333'
p2554
I4
sS'0 3352.3511'
p2555
I1020
sS'0 5164.1333'
p2556
I64
sS'0 8136.3511'
p2557
I4
sS'0 4193.4089'
p2558
I384
sS'0 4132.6089'
p2559
I384
sS'0 5146.4000'
p2560
I64
sS'0 5164.8667'
p2561
I64
sS'0 4643.6667'
p2562
I144
sS'0 4148.6800'
p2563
I384
sS'0 2827.3511'
p2564
I1020
sS'0 8841.3422'
p2565
I4
sS'0 4209.5600'
p2566
I384
sS'0 8859.4889'
p2567
I4
sS'0 9338.4889'
p2568
I4
sS'0 3066.3422'
p2569
I1020
sS'0 4073.4889'
p2570
I384
sS'0 2843.3422'
p2571
I1020
sS'0 3337.4178'
p2572
I1020
sS'0 4113.2800'
p2573
I384
sS'0 4179.6844'
p2574
I384
sS'0 4578.7333'
p2575
I144
sS'0 8874.5600'
p2576
I4
sS'0 4071.5556'
p2577
I384
sS'0 3354.3422'
p2578
I1020
sS'0 4132.7644'
p2579
I384
sS'0 4072.6800'
p2580
I384
sS'0 4132.6889'
p2581
I384
sS'0 4134.4222'
p2582
I384
sS'0 9357.5422'
p2583
I4
sS'0 4164.7733'
p2584
I384
sS'0 4056.6933'
p2585
I384
sS'0 4623.6667'
p2586
I144
sS'0 4129.4800'
p2587
I384
sS'0 5083.4667'
p2588
I64
sS'0 9357.7733'
p2589
I4
sS'0 9340.4933'
p2590
I4
sS'0 5178.4667'
p2591
I64
sS'0 3356.6089'
p2592
I1020
sS'0 9067.4222'
p2593
I4
sS'0 4043.6844'
p2594
I384
sS'0 5118.1333'
p2595
I64
sS'0 4667.4000'
p2596
I144
sS'10107.4000'
p2597
I4
sS'0 4117.6222'
p2598
I384
sS'0 4607.2000'
p2599
I144
sS'0 9357.5644'
p2600
I4
sS'0 4563.9333'
p2601
I144
sS'0 4089.7733'
p2602
I384
sS'0 3352.2800'
p2603
I1020
sS'0 3354.2089'
p2604
I1020
sS'0 4223.8178'
p2605
I384
sS'0 8392.3422'
p2606
I4
sS'0 4059.9111'
p2607
I384
sS'0 8842.4222'
p2608
I4
sS'0 3356.6267'
p2609
I1020
sS'0 9306.3467'
p2610
I4
sS'10012.9333'
p2611
I24
sS'0 5072.6000'
p2612
I64
sS'0 3356.7022'
p2613
I1020
sS'0 4133.3511'
p2614
I384
sS'0 4705.4000'
p2615
I144
sS'0 4691.8667'
p2616
I144
sS'0 9116.6311'
p2617
I4
sS'0 4657.8667'
p2618
I144
sS'0 2631.2089'
p2619
I1020
sS'0 4134.7556'
p2620
I384
sS'0 5159.4667'
p2621
I64
sS'0 5082.1333'
p2622
I64
sS'0 5149.2000'
p2623
I64
sS'0 4145.5644'
p2624
I384
sS'0 1669.2089'
p2625
I1020
sS'0 4132.6978'
p2626
I384
sS'0 4101.2800'
p2627
I384
sS'0 4068.4089'
p2628
I384
sS'0 4218.4089'
p2629
I384
sS'0 9324.3511'
p2630
I4
sS'10106.7333'
p2631
I4
sS'0 4672.9333'
p2632
I144
sS'10112.9333'
p2633
I4
sS'0 4627.6667'
p2634
I144
sS'0 9322.4133'
p2635
I4
sS'0 4163.5467'
p2636
I384
sS'0 4056.4222'
p2637
I384
sS'0 4089.2089'
p2638
I384
sS'0 4101.3467'
p2639
I384
sS'0 4203.4800'
p2640
I384
sS'0 4068.4933'
p2641
I384
sS'0 8633.2800'
p2642
I4
sS'0 4172.2089'
p2643
I384
sS'0 9113.4178'
p2644
I4
sS'0 4068.4889'
p2645
I384
sS'0 4191.3511'
p2646
I384
sS'0 2377.2089'
p2647
I1020
sS'0 4689.6667'
p2648
I144
sS'0 9245.2756'
p2649
I4
sS'0 9100.3467'
p2650
I4
sS'0 4174.2756'
p2651
I384
sS'0 4088.4133'
p2652
I384
sS'0 4134.6933'
p2653
I384
sS'0 2826.2089'
p2654
I1020
sS'0 2585.2756'
p2655
I1020
sS'0 3116.6978'
p2656
I1020
sS'0 2873.4800'
p2657
I1020
sS'0 2874.2089'
p2658
I1020
sS'0 4193.7511'
p2659
I384
sS'0 9354.3422'
p2660
I4
sS'0 9356.6178'
p2661
I4
sS'0 2629.2089'
p2662
I1020
sS'0 4179.9200'
p2663
I384
sS'0 4688.2667'
p2664
I144
sS'0 4186.2089'
p2665
I384
sS'0 3356.4133'
p2666
I1020
sS'0 5130.1333'
p2667
I64
sS'0 4058.5556'
p2668
I384
sS'0 5507.4000'
p2669
I1020
sS'0 4713.4000'
p2670
I144
sS'0 9338.2089'
p2671
I4
sS'0 5101.6000'
p2672
I64
sS'0 4116.6933'
p2673
I384
sS'0 9324.4089'
p2674
I4
sS'0 4171.3467'
p2675
I384
sS'0 5133.6000'
p2676
I64
sS'0 4119.3422'
p2677
I384
sS'0 4641.4667'
p2678
I144
sS'0 4713.8000'
p2679
I144
sS'0 4059.8933'
p2680
I384
sS'0 9082.4133'
p2681
I4
sS'0 4119.6133'
p2682
I384
sS'0 3305.2089'
p2683
I1020
sS'0 4174.4756'
p2684
I384
sS'0 4148.8356'
p2685
I384
sS'0 4207.4133'
p2686
I384
sS'0 4056.6178'
p2687
I384
sS'0 9307.4133'
p2688
I4
sS'0 9324.2800'
p2689
I4
sS'10105.5333'
p2690
I4
sS'0 3357.7022'
p2691
I1020
sS'0 3339.4844'
p2692
I1020
sS'0 3356.5511'
p2693
I1020
sS'10004.6667'
p2694
I24
sS'0 3323.4089'
p2695
I1020
sS'0 3357.6267'
p2696
I1020
sS'0 4147.2800'
p2697
I384
sS'0 2586.3511'
p2698
I1020
sS'0 4117.3467'
p2699
I384
sS'0 5147.6667'
p2700
I64
sS'0 4162.3511'
p2701
I384
sS'0 9323.2089'
p2702
I4
sS'0 3308.4756'
p2703
I1020
sS'0 4653.8000'
p2704
I144
sS'0 4157.2089'
p2705
I384
sS'0 4163.6089'
p2706
I384
sS'0 4703.3333'
p2707
I144
sS'0 4162.7467'
p2708
I384
sS'0 3323.4889'
p2709
I1020
sS'0 9099.3467'
p2710
I4
sS'0 4712.3333'
p2711
I144
sS'0 4609.6000'
p2712
I144
sS'0 4563.6000'
p2713
I144
sS'0 4072.4756'
p2714
I384
sS'0 4134.9067'
p2715
I384
sS'0 4040.4133'
p2716
I384
sS'0 3292.4222'
p2717
I1020
sS'0 4697.5333'
p2718
I144
sS'0 4163.6222'
p2719
I384
sS'0 9323.3467'
p2720
I4
sS'0 4178.5556'
p2721
I384
sS'0 4054.5600'
p2722
I384
sS'0 4087.2756'
p2723
I384
sS'0 4189.5422'
p2724
I384
sS'0 9276.2756'
p2725
I4
sS'0 8634.4133'
p2726
I4
sS'0 4119.7422'
p2727
I384
sS'0 4206.6222'
p2728
I384
sS'0 4073.8311'
p2729
I384
sS'0 3115.2756'
p2730
I1020
sS'0 5189.3333'
p2731
I64
sS'0 4712.2000'
p2732
I144
sS'0 4220.3422'
p2733
I384
sS'0 3113.2756'
p2734
I1020
sS'0 4718.3333'
p2735
I144
sS'0 4162.6311'
p2736
I384
sS'0 4085.5600'
p2737
I384
sS'0 4687.9333'
p2738
I144
sS'0 9277.4133'
p2739
I4
sS'0 4223.7644'
p2740
I384
sS'0 4578.1333'
p2741
I144
sS'0 4720.5333'
p2742
I144
sS'0 4658.3333'
p2743
I144
sS'0 4086.5511'
p2744
I384
sS'0 4623.3333'
p2745
I144
sS'0 4044.9111'
p2746
I384
sS'0 4577.4000'
p2747
I144
sS'0 4223.5644'
p2748
I384
sS'0 4086.6267'
p2749
I384
sS'0 9341.4089'
p2750
I4
sS'0 4578.2667'
p2751
I144
sS'0 4638.1333'
p2752
I144
sS'0 4055.6311'
p2753
I384
sS'0 4222.7556'
p2754
I384
sS'0 4639.8667'
p2755
I144
sS'0 9112.3511'
p2756
I4
sS'0 8616.2089'
p2757
I4
sS'0 8631.3467'
p2758
I4
sS'0 4222.6978'
p2759
I384
sS'0 4057.4222'
p2760
I384
sS'0 4057.4889'
p2761
I384
sS'0 4669.4000'
p2762
I144
sS'0 4059.5556'
p2763
I384
sS'0 4131.2756'
p2764
I384
sS'0 4044.6311'
p2765
I384
sS'0 2875.5556'
p2766
I1020
sS'0 4149.8800'
p2767
I384
sS'0 4059.4933'
p2768
I384
sS'0 4190.4222'
p2769
I384
sS'0 4041.5467'
p2770
I384
sS'0 4073.6311'
p2771
I384
sS'0 5118.6667'
p2772
I64
sS'0 2633.4756'
p2773
I1020
sS'0 8858.4800'
p2774
I4
sS'0 4173.3511'
p2775
I384
sS'0 4562.4667'
p2776
I144
sS'0 8859.4222'
p2777
I4
sS'0 9293.4089'
p2778
I4
sS'0 4223.4844'
p2779
I384
sS'0 4057.4089'
p2780
I384
sS'0 3309.5556'
p2781
I1020
sS'0 3355.5422'
p2782
I1020
sS'0 4086.6844'
p2783
I384
sS'0 4624.4667'
p2784
I144
sS'0 4072.6267'
p2785
I384
sS'0 4642.1333'
p2786
I144
sS'0 5115.2667'
p2787
I64
sS'0 3323.3422'
p2788
I1020
sS'0 4083.2089'
p2789
I384
sS'0 9353.2800'
p2790
I4
sS'0 4086.5467'
p2791
I384
sS'0 4577.8000'
p2792
I144
sS'0 4205.6178'
p2793
I384
sS'0 5114.2667'
p2794
I64
sS'0 4162.4844'
p2795
I384
sS'0 5058.5333'
p2796
I64
sS'0 3340.6222'
p2797
I1020
sS'0 3100.5467'
p2798
I1020
sS'0 5206.4667'
p2799
I64
sS'0 4118.5600'
p2800
I384
sS'0 4191.4933'
p2801
I384
sS'0 5115.2000'
p2802
I64
sS'0 5215.2000'
p2803
I64
sS'0 4206.3511'
p2804
I384
sS'0 4163.3467'
p2805
I384
sS'0 4089.4089'
p2806
I384
sS'0 9323.4933'
p2807
I4
sS'0 5051.3333'
p2808
I64
sS'0 2152.4133'
p2809
I1020
sS'0 3094.2089'
p2810
I1020
sS'0 5220.2667'
p2811
I64
sS'0 4191.4178'
p2812
I384
sS'0 4118.5467'
p2813
I384
sS'10008.7333'
p2814
I24
sS'10103.9333'
p2815
I4
sS'0 5131.2667'
p2816
I64
sS'0 9084.4889'
p2817
I4
sS'0 5071.1333'
p2818
I64
sS'0 3114.5422'
p2819
I1020
sS'10106.2000'
p2820
I4
sS'0 4686.6000'
p2821
I144
sS'0 4058.4178'
p2822
I384
sS'0 5175.1333'
p2823
I64
sS'0 8842.2756'
p2824
I4
sS'0 4193.4844'
p2825
I384
sS'0 4194.4089'
p2826
I384
sS'0 5191.6667'
p2827
I64
sS'0 3084.4844'
p2828
I1020
sS'0 4159.3422'
p2829
I384
sS'0 8875.4133'
p2830
I4
sS'0 4703.6000'
p2831
I144
sS'0 5034.2000'
p2832
I64
sS'10003.7333'
p2833
I24
sS'0 9341.6133'
p2834
I4
sS'0 9084.4089'
p2835
I4
sS'0 9353.3511'
p2836
I4
sS'0 5056.2667'
p2837
I64
sS'0 4042.7067'
p2838
I384
sS'0 2569.2089'
p2839
I1020
sS'0 4643.4667'
p2840
I144
sS'0 4193.2756'
p2841
I384
sS'0 2857.3511'
p2842
I1020
sS'10104.7333'
p2843
I4
sS'0 3113.4178'
p2844
I1020
sS'0 5058.8000'
p2845
I64
sS'0 4184.2089'
p2846
I384
sS'0 5191.6000'
p2847
I64
sS'0 5059.8667'
p2848
I64
sS'0 4194.4889'
p2849
I384
sS'0 3083.2089'
p2850
I1020
sS'0 3308.2800'
p2851
I1020
sS'0 4147.5644'
p2852
I384
sS'0 4193.4756'
p2853
I384
sS'0 3325.5600'
p2854
I1020
sS'0 9113.2089'
p2855
I4
sS'0 4139.2089'
p2856
I384
sS'0 4202.2089'
p2857
I384
sS'0 4609.2000'
p2858
I144
sS'0 4119.5600'
p2859
I384
sS'0 4158.3422'
p2860
I384
sS'0 4179.6311'
p2861
I384
sS'0 2361.3511'
p2862
I1020
sS'0 4087.6133'
p2863
I384
sS'0 4657.3333'
p2864
I144
sS'0 4147.6933'
p2865
I384
sS'0 4592.4667'
p2866
I144
sS'0 4578.6000'
p2867
I144
sS'0 4100.5422'
p2868
I384
sS'0 9097.2756'
p2869
I4
sS'0 4133.4844'
p2870
I384
sS'0 4113.4178'
p2871
I384
sS'0 4072.7733'
p2872
I384
sS'0 4130.3467'
p2873
I384
sS'0 9341.3467'
p2874
I4
sS'0 3307.3422'
p2875
I1020
sS'0 3335.2089'
p2876
I1020
sS'0 4082.4133'
p2877
I384
sS'0 8601.3511'
p2878
I4
sS'0 3115.5511'
p2879
I1020
sS'10114.6000'
p2880
I4
sS'0 3097.3467'
p2881
I1020
sS'0 2393.2800'
p2882
I1020
sS'0 4687.1333'
p2883
I144
sS'0 9036.3467'
p2884
I4
sS'10105.2667'
p2885
I4
sS'0 3067.4089'
p2886
I1020
sS'0 2858.4133'
p2887
I1020
sS'0 4699.8000'
p2888
I144
sS'0 4221.4889'
p2889
I384
sS'0 4161.3511'
p2890
I384
sS'0 4043.7778'
p2891
I384
sS'10111.4667'
p2892
I4
sS'0 4720.1333'
p2893
I144
sS'0 7909.2089'
p2894
I4
sS'0 4193.7067'
p2895
I384
sS'0 8874.4089'
p2896
I4
sS'0 4638.9333'
p2897
I144
sS'10013.2000'
p2898
I24
sS'0 4188.4178'
p2899
I384
sS'0 4638.5333'
p2900
I144
sS'0 4071.4222'
p2901
I384
sS'0 4164.8178'
p2902
I384
sS'0 3341.6267'
p2903
I1020
sS'0 5187.1333'
p2904
I64
sS'0 4712.6000'
p2905
I144
sS'0 4043.5556'
p2906
I384
sS'0 4204.4089'
p2907
I384
sS'0 3115.4178'
p2908
I1020
sS'0 3052.4089'
p2909
I1020
sS'0 4117.6756'
p2910
I384
sS'0 5178.8000'
p2911
I64
sS'0 9309.4933'
p2912
I4
sS'0 4116.5467'
p2913
I384
sS'0 4119.8800'
p2914
I384
sS'0 5139.2000'
p2915
I64
sS'0 4700.6000'
p2916
I144
sS'0 4102.3467'
p2917
I384
sS'0 9357.4133'
p2918
I4
sS'0 4214.2089'
p2919
I384
sS'0 4059.8222'
p2920
I384
sS'0 4190.6356'
p2921
I384
sS'0 4221.4089'
p2922
I384
sS'0 4101.2756'
p2923
I384
sS'0 4194.8978'
p2924
I384
sS'0 4119.6844'
p2925
I384
sS'0 4177.4889'
p2926
I384
sS'0 1911.2756'
p2927
I1020
sS'0 4142.4089'
p2928
I384
sS'0 5219.2000'
p2929
I64
sS'0 9096.2089'
p2930
I4
sS'0 4207.4844'
p2931
I384
sS'0 2377.2756'
p2932
I1020
sS'0 9308.4844'
p2933
I4
sS'0 3341.7022'
p2934
I1020
sS'0 4623.8667'
p2935
I144
sS'0 8586.3422'
p2936
I4
sS'0 8634.4756'
p2937
I4
sS'0 8393.4089'
p2938
I4
sS'0 3351.3511'
p2939
I1020
sS'0 5082.2667'
p2940
I64
sS'0 4104.9200'
p2941
I384
sS'0 4074.8444'
p2942
I384
sS'0 8393.4889'
p2943
I4
sS'0 5178.4000'
p2944
I64
sS'0 9353.4178'
p2945
I4
sS'0 4040.5467'
p2946
I384
sS'0 9115.4800'
p2947
I4
sS'0 4056.5511'
p2948
I384
sS'0 8857.2089'
p2949
I4
sS'0 4059.7022'
p2950
I384
sS'0 4700.1333'
p2951
I144
sS'0 5071.5333'
p2952
I64
sS'0 5217.2000'
p2953
I64
sS'0 4592.2667'
p2954
I144
sS'0 4163.4178'
p2955
I384
sS'0 5175.5333'
p2956
I64
sS'0 3356.6844'
p2957
I1020
sS'0 4044.6978'
p2958
I384
sS'0 4130.4178'
p2959
I384
sS'0 3354.4800'
p2960
I1020
sS'0 5038.4000'
p2961
I64
sS'0 9293.3511'
p2962
I4
sS'0 8811.2756'
p2963
I4
sS'0 8634.4800'
p2964
I4
sS'0 4088.7467'
p2965
I384
sS'0 3341.4222'
p2966
I1020
sS'0 4221.6222'
p2967
I384
sS'0 9113.4844'
p2968
I4
sS'0 4691.4667'
p2969
I144
sS'0 4146.6889'
p2970
I384
sS'0 3305.2756'
p2971
I1020
sS'0 9351.3422'
p2972
I4
sS'0 9095.2800'
p2973
I4
sS'0 4688.1333'
p2974
I144
sS'0 8329.2089'
p2975
I4
sS'10104.3333'
p2976
I4
sS'0 4058.8489'
p2977
I384
sS'0 4088.8356'
p2978
I384
sS'0 2585.2089'
p2979
I1020
sS'0 4074.7467'
p2980
I384
sS'0 9116.4756'
p2981
I4
sS'0 4118.8444'
p2982
I384
sS'0 5209.8000'
p2983
I64
sS'0 8779.2089'
p2984
I4
sS'0 4178.8178'
p2985
I384
sS'0 4101.4756'
p2986
I384
sS'0 8600.2089'
p2987
I4
sS'0 5118.4000'
p2988
I64
sS'0 2875.2756'
p2989
I1020
sS'0 4149.5511'
p2990
I384
sS'0 5053.4000'
p2991
I64
sS'0 4044.9200'
p2992
I384
sS'0 4164.2756'
p2993
I384
sS'0 3068.2089'
p2994
I1020
sS'0 4177.3422'
p2995
I384
sS'0 4149.4933'
p2996
I384
sS'0 5206.1333'
p2997
I64
sS'0 4217.2756'
p2998
I384
sS'0 5179.6000'
p2999
I64
sS'10002.2667'
p3000
I24
sS'0 4073.6800'
p3001
I384
sS'10010.4667'
p3002
I24
sS'0 8873.3467'
p3003
I4
sS'0 4194.7022'
p3004
I384
sS'0 3113.3422'
p3005
I1020
sS'0 4207.5600'
p3006
I384
sS'0 4655.2667'
p3007
I144
sS'0 3082.4222'
p3008
I1020
sS'0 4041.3511'
p3009
I384
sS'0 4087.6267'
p3010
I384
sS'0 9099.4133'
p3011
I4
sS'0 9355.3422'
p3012
I4
sS'0 4134.2800'
p3013
I384
sS'10013.6000'
p3014
I24
sS'0 4593.5333'
p3015
I144
sS'0 4149.8444'
p3016
I384
sS'0 9355.5644'
p3017
I4
sS'0 3357.5511'
p3018
I1020
sS'0 4658.4667'
p3019
I144
sS'10012.5333'
p3020
I24
sS'0 4655.2000'
p3021
I144
sS'0 4040.6222'
p3022
I384
sS'0 3110.2756'
p3023
I1020
sS'0 4697.4000'
p3024
I144
sS'0 4162.4222'
p3025
I384
sS'0 5142.4000'
p3026
I64
sS'0 4716.7333'
p3027
I144
sS'0 3115.5644'
p3028
I1020
sS'0 4222.4844'
p3029
I384
sS'0 9100.6267'
p3030
I4
sS'0 4044.7067'
p3031
I384
sS'0 4119.4178'
p3032
I384
sS'10105.8000'
p3033
I4
sS'0 4608.8667'
p3034
I144
sS'0 4149.7778'
p3035
I384
sS'0 3261.2800'
p3036
I1020
sS'0 4207.6800'
p3037
I384
sS'0 9115.6133'
p3038
I4
sS'0 4700.2000'
p3039
I144
sS'0 9100.5511'
p3040
I4
sS'0 9096.2756'
p3041
I4
sS'0 5202.4000'
p3042
I64
sS'0 4058.6178'
p3043
I384
sS'0 4071.6933'
p3044
I384
sS'0 8875.5467'
p3045
I4
sS'0 8856.2756'
p3046
I4
sS'0 4207.7600'
p3047
I384
sS'0 3261.3467'
p3048
I1020
sS'0 4115.3422'
p3049
I384
sS'0 4201.2089'
p3050
I384
sS'0 3341.3467'
p3051
I1020
sS'0 8632.4222'
p3052
I4
sS'0 5041.3333'
p3053
I64
sS'0 8854.2089'
p3054
I4
sS'0 3357.4178'
p3055
I1020
sS'0 4055.5644'
p3056
I384
sS'0 4222.6222'
p3057
I384
sS'0 5103.2000'
p3058
I64
sS'0 4057.7778'
p3059
I384
sS'0 5190.4667'
p3060
I64
sS'0 2857.4089'
p3061
I1020
sS'0 4222.5556'
p3062
I384
sS'0 9341.5556'
p3063
I4
sS'10012.4000'
p3064
I24
sS'10111.9333'
p3065
I4
sS'0 4671.9333'
p3066
I144
sS'0 4055.5422'
p3067
I384
sS'10014.8000'
p3068
I24
sS'0 4057.7556'
p3069
I384
sS'0 4610.7333'
p3070
I144
sS'0 8856.2800'
p3071
I4
sS'0 4187.2756'
p3072
I384
sS'0 2135.2800'
p3073
I1020
sS'0 2152.3467'
p3074
I1020
sS'0 5186.1333'
p3075
I64
sS'0 9354.5556'
p3076
I4
sS'0 3309.4222'
p3077
I1020
sS'0 9357.4933'
p3078
I4
sS'0 4086.4756'
p3079
I384
sS'0 5059.5333'
p3080
I64
sS'0 4088.4844'
p3081
I384
sS'0 4143.2800'
p3082
I384
sS'0 4073.5422'
p3083
I384
sS'0 4042.7511'
p3084
I384
sS'0 4115.2089'
p3085
I384
sS'0 5190.6000'
p3086
I64
sS'0 4170.2089'
p3087
I384
sS'0 3324.4800'
p3088
I1020
sS'0 5161.2000'
p3089
I64
sS'0 3116.4800'
p3090
I1020
sS'0 4219.5467'
p3091
I384
sS'0 4058.6889'
p3092
I384
sS'0 4040.3467'
p3093
I384
sS'0 5132.1333'
p3094
I64
sS'0 4178.6178'
p3095
I384
sS'0 4163.2756'
p3096
I384
sS'0 2843.4800'
p3097
I1020
sS'0 4164.6133'
p3098
I384
sS'0 4148.6844'
p3099
I384
sS'0 3277.3467'
p3100
I1020
sS'10012.8667'
p3101
I24
sS'0 8874.3511'
p3102
I4
sS'0 3066.3467'
p3103
I1020
sS'0 8875.6089'
p3104
I4
sS'0 4103.5467'
p3105
I384
sS'0 5119.2667'
p3106
I64
sS'0 8375.2800'
p3107
I4
sS'0 4086.7067'
p3108
I384
sS'0 4070.5600'
p3109
I384
sS'0 2618.2800'
p3110
I1020
sS'0 2874.4222'
p3111
I1020
sS'0 4592.7333'
p3112
I144
sS'0 9098.3511'
p3113
I4
sS'0 4722.2667'
p3114
I144
sS'0 4191.5467'
p3115
I384
sS'0 9357.5467'
p3116
I4
sS'0 4654.3333'
p3117
I144
sS'0 4129.4844'
p3118
I384
sS'0 4669.5333'
p3119
I144
sS'10109.5333'
p3120
I4
sS'0 4043.6889'
p3121
I384
sS'0 9293.4844'
p3122
I4
sS'0 4193.3422'
p3123
I384
sS'0 9098.2089'
p3124
I4
sS'0 3357.2756'
p3125
I1020
sS'0 2389.2089'
p3126
I1020
sS'0 4099.4889'
p3127
I384
sS'0 9036.2800'
p3128
I4
sS'0 3065.2800'
p3129
I1020
sS'10112.7333'
p3130
I4
sS'0 9036.2756'
p3131
I4
sS'0 4687.2667'
p3132
I144
sS'0 4089.7778'
p3133
I384
sS'0 8136.2756'
p3134
I4
sS'0 4221.2756'
p3135
I384
sS'0 2634.5511'
p3136
I1020
sS'0 4148.7644'
p3137
I384
sS'0 3356.6222'
p3138
I1020
sS'0 4145.5467'
p3139
I384
sS'10002.7333'
p3140
I24
sS'0 3321.3511'
p3141
I1020
sS'0 4656.7333'
p3142
I144
sS'0 9081.2800'
p3143
I4
sS'0 8377.4089'
p3144
I4
sS'0 4164.8489'
p3145
I384
sS'0 5512.7333'
p3146
I1020
sS'10114.8667'
p3147
I4
sS'0 4134.7511'
p3148
I384
sS'0 4130.2756'
p3149
I384
sS'0 4145.5600'
p3150
I384
sS'0 3309.2089'
p3151
I1020
sS'0 3097.4133'
p3152
I1020
sS'0 5042.5333'
p3153
I64
sS'0 4117.7422'
p3154
I384
sS'0 5085.6000'
p3155
I64
sS'0 4043.4222'
p3156
I384
sS'0 4042.3511'
p3157
I384
sS'0 4119.8356'
p3158
I384
sS'0 4114.4133'
p3159
I384
sS'0 4216.2756'
p3160
I384
sS'0 2393.4800'
p3161
I1020
sS'0 8152.3511'
p3162
I4
sS'0 4059.8756'
p3163
I384
sS'0 4641.6667'
p3164
I144
sS'0 4103.4800'
p3165
I384
sS'0 4221.4756'
p3166
I384
sS'0 8843.3511'
p3167
I4
sS'0 4178.4844'
p3168
I384
sS'0 4086.2800'
p3169
I384
sS'0 4209.2800'
p3170
I384
sS'0 4638.2667'
p3171
I144
sS'0 5179.6667'
p3172
I64
sS'0 8361.2800'
p3173
I4
sS'0 4043.8489'
p3174
I384
sS'0 9100.3422'
p3175
I4
sS'0 4178.5644'
p3176
I384
sS'0 4103.7733'
p3177
I384
sS'0 9354.3467'
p3178
I4
sS'10009.4667'
p3179
I24
sS'0 4653.6000'
p3180
I144
sS'0 9309.5600'
p3181
I4
sS'0 9356.5511'
p3182
I4
sS'0 4717.6667'
p3183
I144
sS'0 3356.4178'
p3184
I1020
sS'0 9356.6133'
p3185
I4
sS'0 4058.5511'
p3186
I384
sS'0 3115.4844'
p3187
I1020
sS'0 8875.3467'
p3188
I4
sS'0 9083.4222'
p3189
I4
sS'0 3068.4933'
p3190
I1020
sS'0 9357.6889'
p3191
I4
sS'0 4059.6756'
p3192
I384
sS'0 4178.6222'
p3193
I384
sS'0 4119.3467'
p3194
I384
sS'0 2554.2089'
p3195
I1020
sS'0 9082.4178'
p3196
I4
sS'0 9020.2800'
p3197
I4
sS'0 5147.3333'
p3198
I64
sS'0 4059.8978'
p3199
I384
sS'0 9319.2089'
p3200
I4
sS'0 4204.4756'
p3201
I384
sS'0 2873.4844'
p3202
I1020
sS'0 2856.2800'
p3203
I1020
sS'0 4074.8133'
p3204
I384
sS'0 4088.6800'
p3205
I384
sS'0 5183.1333'
p3206
I64
sS'0 8634.5422'
p3207
I4
sS'0 4720.4000'
p3208
I144
sS'0 4088.6756'
p3209
I384
sS'0 4207.4178'
p3210
I384
sS'0 8361.3511'
p3211
I4
sS'0 5111.2667'
p3212
I64
sS'0 5058.3333'
p3213
I64
sS'0 4074.5422'
p3214
I384
sS'0 4178.5467'
p3215
I384
sS'0 9307.4178'
p3216
I4
sS'0 4705.2667'
p3217
I144
sS'0 3081.2800'
p3218
I1020
sS'0 4171.2800'
p3219
I384
sS'0 4164.6267'
p3220
I384
sS'0 3356.5556'
p3221
I1020
sS'0 9357.6222'
p3222
I4
sS'0 3339.4889'
p3223
I1020
sS'0 3357.7067'
p3224
I1020
sS'0 4070.6133'
p3225
I384
sS'0 4175.4800'
p3226
I384
sS'0 5140.2000'
p3227
I64
sS'0 4117.3422'
p3228
I384
sS'0 9099.2800'
p3229
I4
sS'0 4700.6667'
p3230
I144
sS'0 2825.2800'
p3231
I1020
sS'0 3259.2089'
p3232
I1020
sS'0 4162.7422'
p3233
I384
sS'0 3354.4756'
p3234
I1020
sS'0 3353.2756'
p3235
I1020
sS'0 9114.4889'
p3236
I4
sS'0 4040.4178'
p3237
I384
sS'0 3068.4756'
p3238
I1020
sS'0 5175.4000'
p3239
I64
sS'0 4073.8133'
p3240
I384
sS'0 4119.6178'
p3241
I384
sS'0 4115.6089'
p3242
I384
sS'0 1910.2089'
p3243
I1020
sS'0 4130.3422'
p3244
I384
sS'0 4163.6267'
p3245
I384
sS'0 9114.4089'
p3246
I4
sS'0 3068.2756'
p3247
I1020
sS'0 4130.4800'
p3248
I384
sS'0 5074.6667'
p3249
I64
sS'0 4111.3511'
p3250
I384
sS'0 4111.2800'
p3251
I384
sS'0 8842.2089'
p3252
I4
sS'0 4117.2089'
p3253
I384
sS'0 8377.3467'
p3254
I4
sS'0 4117.5511'
p3255
I384
sS'0 4595.5333'
p3256
I144
sS'0 4206.6267'
p3257
I384
sS'0 4672.3333'
p3258
I144
sS'10112.3333'
p3259
I4
sS'0 8634.4178'
p3260
I4
sS'10104.2000'
p3261
I4
sS'0 4053.4089'
p3262
I384
sS'0 4162.6089'
p3263
I384
sS'0 3357.6222'
p3264
I1020
sS'0 3357.6889'
p3265
I1020
sS'0 4115.6267'
p3266
I384
sS'0 4059.6222'
p3267
I384
sS'0 4659.4000'
p3268
I144
sS'0 4191.6844'
p3269
I384
sS'0 5146.6667'
p3270
I64
sS'0 4085.5644'
p3271
I384
sS'0 2392.2800'
p3272
I1020
sS'0 4133.7422'
p3273
I384
sS'0 3098.4800'
p3274
I1020
sS'0 4722.7333'
p3275
I144
sS'0 4219.5644'
p3276
I384
sS'0 4130.6267'
p3277
I384
sS'0 4053.4889'
p3278
I384
sS'0 8393.4133'
p3279
I4
sS'0 3357.6089'
p3280
I1020
sS'0 4148.2756'
p3281
I384
sS'0 3322.4133'
p3282
I1020
sS'0 4164.4133'
p3283
I384
sS'0 4163.8089'
p3284
I384
sS'0 5206.6667'
p3285
I64
sS'0 1894.2089'
p3286
I1020
sS'0 5143.2667'
p3287
I64
sS'0 8631.3422'
p3288
I4
sS'0 4675.4667'
p3289
I144
sS'0 2859.4933'
p3290
I1020
sS'0 9325.6311'
p3291
I4
sS'0 5149.8000'
p3292
I64
sS'0 4059.5511'
p3293
I384
sS'10108.3333'
p3294
I4
sS'0 4668.3333'
p3295
I144
sS'0 4142.3511'
p3296
I384
sS'0 2376.2089'
p3297
I1020
sS'0 5188.4000'
p3298
I64
sS'0 9035.2756'
p3299
I4
sS'10206.3333'
p3300
I4
sS'0 9341.4222'
p3301
I4
sS'10013.9333'
p3302
I24
sS'0 4073.6356'
p3303
I384
sS'0 3293.2800'
p3304
I1020
sS'0 5175.6000'
p3305
I64
sS'0 3309.4933'
p3306
I1020
sS'0 4041.6311'
p3307
I384
sS'0 4148.5467'
p3308
I384
sS'0 3261.2756'
p3309
I1020
sS'0 5100.3333'
p3310
I64
sS'0 4143.4133'
p3311
I384
sS'0 4132.7556'
p3312
I384
sS'0 4201.2756'
p3313
I384
sS'0 5117.2000'
p3314
I64
sS'0 4041.4222'
p3315
I384
sS'0 3100.4800'
p3316
I1020
sS'0 2634.5600'
p3317
I1020
sS'0 4081.2800'
p3318
I384
sS'0 4115.4133'
p3319
I384
sS'0 9293.4222'
p3320
I4
sS'0 5083.2000'
p3321
I64
sS'0 4148.4756'
p3322
I384
sS'0 4149.8844'
p3323
I384
sS'0 4044.6356'
p3324
I384
sS'0 4610.8667'
p3325
I144
sS'0 2875.5511'
p3326
I1020
sS'0 4056.2756'
p3327
I384
sS'0 4132.7778'
p3328
I384
sS'0 4687.7333'
p3329
I144
sS'0 5220.4667'
p3330
I64
sS'0 5104.6000'
p3331
I64
sS'0 3292.2089'
p3332
I1020
sS'0 9116.3511'
p3333
I4
sS'0 8136.2800'
p3334
I4
sS'0 4163.3422'
p3335
I384
sS'0 8134.2089'
p3336
I4
sS'0 5161.5333'
p3337
I64
sS'0 3114.2800'
p3338
I1020
sS'0 9067.2756'
p3339
I4
sS'0 4194.7644'
p3340
I384
sS'0 3309.5511'
p3341
I1020
sS'0 4086.6800'
p3342
I384
sS'0 4119.5467'
p3343
I384
sS'0 8825.2800'
p3344
I4
sS'0 8856.3422'
p3345
I4
sS'0 9084.4844'
p3346
I4
sS'0 5147.7333'
p3347
I64
sS'0 3114.5467'
p3348
I1020
sS'0 9261.3511'
p3349
I4
sS'0 4037.4133'
p3350
I384
sS'0 4133.8489'
p3351
I384
sS'0 4702.6000'
p3352
I144
sS'0 8875.4178'
p3353
I4
sS'0 5148.2000'
p3354
I64
sS'0 4717.3333'
p3355
I144
sS'0 8390.2756'
p3356
I4
sS'0 4115.5511'
p3357
I384
sS'0 9340.3467'
p3358
I4
sS'0 4721.2667'
p3359
I144
sS'0 5058.7333'
p3360
I64
sS'0 4042.7022'
p3361
I384
sS'0 4218.4133'
p3362
I384
sS'0 3116.4756'
p3363
I1020
sS'0 4716.1333'
p3364
I144
sS'0 4102.4889'
p3365
I384
sS'10111.8000'
p3366
I4
sS'0 4671.8000'
p3367
I144
sS'0 2601.3511'
p3368
I1020
sS'10004.9333'
p3369
I24
sS'0 4175.4089'
p3370
I384
sS'0 1911.3422'
p3371
I1020
sS'0 8629.2089'
p3372
I4
sS'0 4191.4133'
p3373
I384
sS'0 3325.5644'
p3374
I1020
sS'0 4100.5644'
p3375
I384
sS'0 4058.6756'
p3376
I384
sS'0 4187.3511'
p3377
I384
sS'0 9339.3422'
p3378
I4
sS'0 9354.4222'
p3379
I4
sS'0 2151.3422'
p3380
I1020
sS'0 2618.2756'
p3381
I1020
sS'0 5142.3333'
p3382
I64
sS'0 4041.5644'
p3383
I384
sS'0 9341.6178'
p3384
I4
sS'0 5059.6667'
p3385
I64
sS'0 4087.6178'
p3386
I384
sS'0 4100.5467'
p3387
I384
sS'0 3115.6356'
p3388
I1020
sS'0 3111.2089'
p3389
I1020
sS'0 9341.3422'
p3390
I4
sS'0 3097.2800'
p3391
I1020
sS'0 4072.7778'
p3392
I384
sS'0 5139.1333'
p3393
I64
sS'0 4043.4933'
p3394
I384
sS'0 3115.5556'
p3395
I1020
sS'0 3336.2089'
p3396
I1020
sS'0 5104.2667'
p3397
I64
sS'0 4082.4178'
p3398
I384
sS'0 4071.5600'
p3399
I384
sS'0 9036.3422'
p3400
I4
sS'0 4132.6756'
p3401
I384
sS'0 5202.3333'
p3402
I64
sS'0 5216.3333'
p3403
I64
sS'0 4103.7556'
p3404
I384
sS'0 4103.6178'
p3405
I384
sS'0 3357.3422'
p3406
I1020
sS'0 4179.6978'
p3407
I384
sS'0 2843.4133'
p3408
I1020
sS'0 3357.2089'
p3409
I1020
sS'0 9341.2089'
p3410
I4
sS'0 2875.2089'
p3411
I1020
sS'0 3099.5600'
p3412
I1020
sS'0 4188.4133'
p3413
I384
sS'10002.4667'
p3414
I24
sS'0 4592.6000'
p3415
I144
sS'0 4164.8133'
p3416
I384
sS'0 4204.5422'
p3417
I384
sS'0 4179.6178'
p3418
I384
sS'0 8617.2756'
p3419
I4
sS'0 3341.6222'
p3420
I1020
sS'0 3355.6089'
p3421
I1020
sS'0 4134.7067'
p3422
I384
sS'0 4043.5511'
p3423
I384
sS'10109.6667'
p3424
I4
sS'0 4669.6667'
p3425
I144
sS'0 4158.4933'
p3426
I384
sS'0 5035.2000'
p3427
I64
sS'0 8811.3511'
p3428
I4
sS'0 9357.4178'
p3429
I4
sS'0 4116.5422'
p3430
I384
sS'0 4700.7333'
p3431
I144
sS'0 5205.4667'
p3432
I64
sS'0 4607.3333'
p3433
I144
sS'0 4223.8267'
p3434
I384
sS'0 5223.1333'
p3435
I64
sS'0 4193.5467'
p3436
I384
sS'0 9276.3422'
p3437
I4
sS'0 9340.4089'
p3438
I4
sS'0 2632.3511'
p3439
I1020
sS'0 4221.3422'
p3440
I384
sS'0 4175.6133'
p3441
I384
sS'0 3353.4178'
p3442
I1020
sS'0 3036.3511'
p3443
I1020
sS'0 9292.4222'
p3444
I4
sS'0 3100.6133'
p3445
I1020
sS'0 4134.6133'
p3446
I384
sS'0 4690.2000'
p3447
I144
sS'0 4172.2756'
p3448
I384
sS'0 4191.6356'
p3449
I384
sS'0 5132.4000'
p3450
I64
sS'0 3084.4800'
p3451
I1020
sS'0 9308.4800'
p3452
I4
sS'0 4715.4000'
p3453
I144
sS'0 8586.3467'
p3454
I4
sS'0 4085.2756'
p3455
I384
sS'0 4158.3467'
p3456
I384
sS'0 4641.7333'
p3457
I144
sS'0 3064.2089'
p3458
I1020
sS'0 4667.5333'
p3459
I144
sS'10107.5333'
p3460
I4
sS'10102.5333'
p3461
I4
sS'0 4202.4089'
p3462
I384
sS'0 9305.2756'
p3463
I4
sS'0 5042.6667'
p3464
I64
sS'0 4085.4756'
p3465
I384
sS'0 4131.6978'
p3466
I384
sS'0 9353.4133'
p3467
I4
sS'0 5119.5333'
p3468
I64
sS'0 4668.6667'
p3469
I144
sS'10108.6667'
p3470
I4
sS'0 5089.7333'
p3471
I64
sS'0 4177.5644'
p3472
I384
sS'0 4173.4800'
p3473
I384
sS'0 3084.2756'
p3474
I1020
sS'0 5163.2000'
p3475
I64
sS'0 4194.8933'
p3476
I384
sS'0 4223.3511'
p3477
I384
sS'0 4130.4133'
p3478
I384
sS'0 4088.4089'
p3479
I384
sS'0 5179.5333'
p3480
I64
sS'0 4164.4756'
p3481
I384
sS'0 5087.2000'
p3482
I64
sS'0 3356.6800'
p3483
I1020
sS'0 4149.2800'
p3484
I384
sS'0 2856.2756'
p3485
I1020
sS'0 2375.2756'
p3486
I1020
sS'0 5067.1333'
p3487
I64
sS'0 4162.4889'
p3488
I384
sS'0 4088.7422'
p3489
I384
sS'0 5040.5333'
p3490
I64
sS'0 3341.4889'
p3491
I1020
sS'0 4074.8400'
p3492
I384
sS'0 4118.8267'
p3493
I384
sS'0 9116.4178'
p3494
I4
sS'0 4200.2756'
p3495
I384
sS'0 5149.3333'
p3496
I64
sS'0 4162.5511'
p3497
I384
sS'0 3357.7733'
p3498
I1020
sS'0 3341.4089'
p3499
I1020
sS'0 4656.2667'
p3500
I144
sS'0 4059.6889'
p3501
I384
sS'0 9113.4089'
p3502
I4
sS'0 8875.2756'
p3503
I4
sS'0 4713.5333'
p3504
I144
sS'0 5099.2000'
p3505
I64
sS'0 4178.8133'
p3506
I384
sS'0 4141.3511'
p3507
I384
sS'0 4577.4667'
p3508
I144
sS'0 2874.3511'
p3509
I1020
sS'0 4087.2089'
p3510
I384
sS'0 9322.2800'
p3511
I4
sS'0 4178.4800'
p3512
I384
sS'0 4059.7422'
p3513
I384
sS'0 4623.2667'
p3514
I144
sS'0 9114.2756'
p3515
I4
sS'0 4149.5556'
p3516
I384
sS'0 2377.3467'
p3517
I1020
sS'0 4059.6089'
p3518
I384
sS'0 9113.4889'
p3519
I4
sS'0 4221.6267'
p3520
I384
sS'0 3084.3467'
p3521
I1020
sS'0 4146.6844'
p3522
I384
sS'0 3304.2089'
p3523
I1020
sS'10011.3333'
p3524
I24
sS'0 9114.4756'
p3525
I4
sS'0 4118.7067'
p3526
I384
sS'0 4717.8667'
p3527
I144
sS'0 4718.2000'
p3528
I144
sS'0 8634.3467'
p3529
I4
sS'0 9338.3511'
p3530
I4
sS'0 2602.3511'
p3531
I1020
sS'0 4194.7067'
p3532
I384
sS'0 4221.6089'
p3533
I384
sS'0 4217.2800'
p3534
I384
sS'0 8152.4089'
p3535
I4
sS'0 4159.4133'
p3536
I384
sS'0 9355.4089'
p3537
I4
sS'0 4222.7600'
p3538
I384
sS'0 4658.2667'
p3539
I144
sS'0 5134.2667'
p3540
I64
sS'0 5110.2000'
p3541
I64
sS'0 2875.6089'
p3542
I1020
sS'0 4221.6889'
p3543
I384
sS'0 4083.4178'
p3544
I384
sS'0 4072.5467'
p3545
I384
sS'0 9099.4178'
p3546
I4
sS'0 4175.3511'
p3547
I384
sS'0 4162.6356'
p3548
I384
sS'0 4608.3333'
p3549
I144
sS'0 4149.4756'
p3550
I384
sS'0 4056.6267'
p3551
I384
sS'0 4040.6267'
p3552
I384
sS'0 3082.4089'
p3553
I1020
sS'0 2633.4222'
p3554
I1020
sS'0 5131.6667'
p3555
I64
sS'0 3325.2756'
p3556
I1020
sS'0 4706.6000'
p3557
I144
sS'0 4222.4800'
p3558
I384
sS'0 4119.4133'
p3559
I384
sS'0 8858.2800'
p3560
I4
sS'10112.4667'
p3561
I4
sS'0 5037.2667'
p3562
I64
sS'0 9275.2089'
p3563
I4
sS'10108.2000'
p3564
I4
sS'0 4207.6844'
p3565
I384
sS'0 8633.4133'
p3566
I4
sS'0 9099.5556'
p3567
I4
sS'0 4085.6311'
p3568
I384
sS'0 3293.2756'
p3569
I1020
sS'0 4207.7644'
p3570
I384
sS'0 4101.6133'
p3571
I384
sS'0 4722.4667'
p3572
I144
sS'0 5219.4000'
p3573
I64
sS'0 9355.4222'
p3574
I4
sS'0 1670.2089'
p3575
I1020
sS'0 3340.6178'
p3576
I1020
sS'0 4209.6756'
p3577
I384
sS'0 4653.2667'
p3578
I144
sS'0 4577.5333'
p3579
I144
sS'0 4169.2089'
p3580
I384
sS'0 4149.9111'
p3581
I384
sS'0 9321.2089'
p3582
I4
sS'0 3052.3467'
p3583
I1020
sS'0 4148.3422'
p3584
I384
sS'0 4547.7333'
p3585
I144
sS'0 4222.6267'
p3586
I384
sS'0 4055.5600'
p3587
I384
sS'0 2618.4933'
p3588
I1020
sS'0 4702.1333'
p3589
I144
sS'0 4707.5333'
p3590
I144
sS'0 4044.6800'
p3591
I384
sS'0 4057.7733'
p3592
I384
sS'0 4131.3467'
p3593
I384
sS'0 8855.2089'
p3594
I4
sS'0 8857.4222'
p3595
I4
sS'0 4707.9333'
p3596
I144
sS'0 4222.5511'
p3597
I384
sS'0 2632.4178'
p3598
I1020
sS'0 9083.2800'
p3599
I4
sS'0 2634.4844'
p3600
I1020
sS'0 9341.5511'
p3601
I4
sS'0 4041.6933'
p3602
I384
sS'0 3083.4178'
p3603
I1020
sS'10013.2667'
p3604
I24
sS'0 4223.5556'
p3605
I384
sS'0 3341.3422'
p3606
I1020
sS'0 4072.2089'
p3607
I384
sS'0 9354.5511'
p3608
I4
sS'0 4187.4089'
p3609
I384
sS'0 4143.3467'
p3610
I384
sS'0 9084.2089'
p3611
I4
sS'0 3322.4222'
p3612
I1020
sS'0 4577.9333'
p3613
I144
sS'0 4685.9333'
p3614
I144
sS'0 2630.2756'
p3615
I1020
sS'0 4054.4089'
p3616
I384
sS'0 2634.5422'
p3617
I1020
sS'0 5054.4667'
p3618
I64
sS'0 4203.4089'
p3619
I384
sS'0 4659.7333'
p3620
I144
sS'0 5054.3333'
p3621
I64
sS'0 5055.1333'
p3622
I64
sS'0 4161.6222'
p3623
I384
sS'0 4089.4178'
p3624
I384
sS'0 4084.2800'
p3625
I384
sS'0 8615.2756'
p3626
I4
sS'0 8825.2756'
p3627
I4
sS'10103.8667'
p3628
I4
sS'0 5178.1333'
p3629
I64
sS'0 4201.3422'
p3630
I384
sS'0 2843.4844'
p3631
I1020
sS'0 4178.6133'
p3632
I384
sS'0 4073.5600'
p3633
I384
sS'0 4671.3333'
p3634
I144
sS'0 2152.3422'
p3635
I1020
sS'0 4714.6667'
p3636
I144
sS'0 3277.3422'
p3637
I1020
sS'0 4689.2667'
p3638
I144
sS'0 9097.2800'
p3639
I4
sS'0 4073.4800'
p3640
I384
sS'0 5088.6667'
p3641
I64
sS'0 8859.4800'
p3642
I4
sS'0 4172.4178'
p3643
I384
sS'0 4086.7022'
p3644
I384
sS'0 4037.3467'
p3645
I384
sS'0 4715.5333'
p3646
I144
sS'0 4718.4667'
p3647
I144
sS'0 5119.8000'
p3648
I64
sS'0 5179.8000'
p3649
I64
sS'0 4073.5467'
p3650
I384
sS'0 4193.4800'
p3651
I384
sS'0 4158.4222'
p3652
I384
sS'0 4205.4756'
p3653
I384
sS'0 8875.6267'
p3654
I4
sS'0 5216.2667'
p3655
I64
sS'0 4161.5422'
p3656
I384
sS'0 4042.6978'
p3657
I384
sS'10010.9333'
p3658
I24
sS'0 5058.6000'
p3659
I64
sS'0 4084.2756'
p3660
I384
sS'0 5164.4667'
p3661
I64
sS'0 4193.3467'
p3662
I384
sS'0 3277.2089'
p3663
I1020
sS'0 9339.3511'
p3664
I4
sS'0 4670.5333'
p3665
I144
sS'10110.5333'
p3666
I4
sS'0 4039.3467'
p3667
I384
sS'0 3066.2800'
p3668
I1020
sS'0 4131.4889'
p3669
I384
sS'0 5117.1333'
p3670
I64
sS'0 4114.5511'
p3671
I384
sS'0 5216.2000'
p3672
I64
sS'0 4689.7333'
p3673
I144
sS'0 3325.6311'
p3674
I1020
sS'0 3355.6311'
p3675
I1020
sS'0 4148.7689'
p3676
I384
sS'0 4624.1333'
p3677
I144
sS'0 9084.4133'
p3678
I4
sS'0 4145.5422'
p3679
I384
sS'0 4594.7333'
p3680
I144
sS'0 4179.7022'
p3681
I384
sS'0 5142.2000'
p3682
I64
sS'0 4175.5556'
p3683
I384
sS'0 5193.6667'
p3684
I64
sS'0 4129.4222'
p3685
I384
sS'0 8872.4133'
p3686
I4
sS'0 5057.4000'
p3687
I64
sS'0 2874.4178'
p3688
I1020
sS'0 4072.4222'
p3689
I384
sS'10007.7333'
p3690
I24
sS'0 4072.4889'
p3691
I384
sS'0 4043.7067'
p3692
I384
sS'0 5104.1333'
p3693
I64
sS'0 9353.2089'
p3694
I4
sS'0 3116.6267'
p3695
I1020
sS'0 5188.2667'
p3696
I64
sS'0 3097.4178'
p3697
I1020
sS'0 4206.5600'
p3698
I384
sS'0 8617.2089'
p3699
I4
sS'0 8377.4222'
p3700
I4
sS'0 4089.8267'
p3701
I384
sS'0 2377.2800'
p3702
I1020
sS'0 4114.4178'
p3703
I384
sS'0 3325.4222'
p3704
I1020
sS'0 4638.4667'
p3705
I144
sS'0 4070.4222'
p3706
I384
sS'0 4103.4844'
p3707
I384
sS'0 4087.7467'
p3708
I384
sS'0 9081.3467'
p3709
I4
sS'0 3340.3422'
p3710
I1020
sS'0 8840.2089'
p3711
I4
sS'10013.3333'
p3712
I24
sS'10102.4667'
p3713
I4
sS'0 4609.3333'
p3714
I144
sS'0 3115.4089'
p3715
I1020
sS'0 4117.6844'
p3716
I384
sS'0 4071.7067'
p3717
I384
sS'0 4175.4844'
p3718
I384
sS'0 8617.3422'
p3719
I4
sS'0 9338.2800'
p3720
I4
sS'0 5178.2000'
p3721
I64
sS'0 4652.8667'
p3722
I144
sS'0 4640.1333'
p3723
I144
sS'0 4117.7467'
p3724
I384
sS'0 9309.5644'
p3725
I4
sS'10107.2667'
p3726
I4
sS'0 4667.2667'
p3727
I144
sS'10102.4000'
p3728
I4
sS'0 4051.3422'
p3729
I384
sS'0 3099.4844'
p3730
I1020
sS'0 3115.4889'
p3731
I1020
sS'0 2152.2800'
p3732
I1020
sS'0 8875.3422'
p3733
I4
sS'0 8633.3467'
p3734
I4
sS'0 4044.3511'
p3735
I384
sS'0 3341.6978'
p3736
I1020
sS'0 4685.1333'
p3737
I144
sS'0 4721.5333'
p3738
I144
sS'0 2859.5556'
p3739
I1020
sS'0 5056.6000'
p3740
I64
sS'0 9339.4756'
p3741
I4
sS'0 4058.8178'
p3742
I384
sS'0 8874.5556'
p3743
I4
sS'0 4193.6756'
p3744
I384
sS'0 4099.5644'
p3745
I384
sS'0 5074.8667'
p3746
I64
sS'0 8150.2089'
p3747
I4
sS'0 4134.4933'
p3748
I384
sS'0 4670.6000'
p3749
I144
sS'0 4088.6844'
p3750
I384
sS'0 4074.7733'
p3751
I384
sS'0 9276.3467'
p3752
I4
sS'0 3324.2800'
p3753
I1020
sS'0 4626.4667'
p3754
I144
sS'0 3324.2756'
p3755
I1020
sS'0 4074.5467'
p3756
I384
sS'0 9336.3511'
p3757
I4
sS'0 4131.6933'
p3758
I384
sS'0 4611.8000'
p3759
I144
sS'0 5178.5333'
p3760
I64
sS'0 4164.6222'
p3761
I384
sS'0 4217.4089'
p3762
I384
sS'0 9357.6267'
p3763
I4
sS'0 4706.4667'
p3764
I144
sS'0 5071.4667'
p3765
I64
sS'0 9355.6311'
p3766
I4
sS'0 5035.2667'
p3767
I64
sS'0 4610.9333'
p3768
I144
sS'0 4669.3333'
p3769
I144
sS'0 3098.4133'
p3770
I1020
sS'0 5145.4667'
p3771
I64
sS'0 4186.2800'
p3772
I384
sS'0 3305.2800'
p3773
I1020
sS'0 4177.4933'
p3774
I384
sS'0 5085.4667'
p3775
I64
sS'0 5217.3333'
p3776
I64
sS'0 3290.2089'
p3777
I1020
sS'0 3351.2089'
p3778
I1020
sS'0 5179.4000'
p3779
I64
sS'0 4164.5422'
p3780
I384
sS'0 4147.2089'
p3781
I384
sS'0 4114.2756'
p3782
I384
sS'0 5085.4000'
p3783
I64
sS'0 5103.3333'
p3784
I64
sS'0 5162.4667'
p3785
I64
sS'0 8377.3422'
p3786
I4
sS'0 3353.4933'
p3787
I1020
sS'0 8859.5600'
p3788
I4
sS'0 4670.1333'
p3789
I144
sS'10110.1333'
p3790
I4
sS'0 4057.3422'
p3791
I384
sS'0 4041.5511'
p3792
I384
sS'0 4706.9333'
p3793
I144
sS'0 2586.2756'
p3794
I1020
sS'0 4115.6222'
p3795
I384
sS'0 4610.2000'
p3796
I144
sS'0 4639.4667'
p3797
I144
sS'0 4100.3511'
p3798
I384
sS'0 5116.3333'
p3799
I64
sS'0 9116.5467'
p3800
I4
sS'0 5043.2667'
p3801
I64
sS'0 4641.2000'
p3802
I144
sS'0 4133.7467'
p3803
I384
sS'0 5089.1333'
p3804
I64
sS'10014.2667'
p3805
I24
sS'0 9100.6133'
p3806
I4
sS'0 4130.6222'
p3807
I384
sS'0 9114.3422'
p3808
I4
sS'0 8377.2089'
p3809
I4
sS'0 9244.2089'
p3810
I4
sS'0 4149.4222'
p3811
I384
sS'10113.4000'
p3812
I4
sS'0 4673.4000'
p3813
I144
sS'0 4130.4844'
p3814
I384
sS'0 4044.5556'
p3815
I384
sS'0 5068.4667'
p3816
I64
sS'0 4164.4178'
p3817
I384
sS'0 4044.4178'
p3818
I384
sS'0 4622.6000'
p3819
I144
sS'0 3339.4133'
p3820
I1020
sS'0 9325.3422'
p3821
I4
sS'0 4058.6222'
p3822
I384
sS'0 8858.4089'
p3823
I4
sS'0 4205.3467'
p3824
I384
sS'0 9325.6133'
p3825
I4
sS'0 8858.4889'
p3826
I4
sS'0 9068.3511'
p3827
I4
sS'0 4147.4844'
p3828
I384
sS'0 4704.8000'
p3829
I144
sS'0 3291.2089'
p3830
I1020
sS'0 8871.3511'
p3831
I4
sS'10013.7333'
p3832
I24
sS'0 5078.1333'
p3833
I64
sS'0 8841.2800'
p3834
I4
sS'0 4041.6356'
p3835
I384
sS'0 4148.5422'
p3836
I384
sS'0 4149.7422'
p3837
I384
sS'0 4179.4889'
p3838
I384
sS'0 9308.3467'
p3839
I4
sS'10004.8000'
p3840
I24
sS'0 5073.6000'
p3841
I64
sS'0 9095.2089'
p3842
I4
sS'0 4608.9333'
p3843
I144
sS'0 3068.3467'
p3844
I1020
sS'0 5193.2000'
p3845
I64
sS'0 4179.4089'
p3846
I384
sS'0 3325.3422'
p3847
I1020
sS'0 4134.8933'
p3848
I384
sS'0 2857.2089'
p3849
I1020
sS'0 4624.4000'
p3850
I144
sS'0 5070.4667'
p3851
I64
sS'0 9335.2800'
p3852
I4
sS'0 4610.6667'
p3853
I144
sS'0 9099.5467'
p3854
I4
sS'0 2617.2800'
p3855
I1020
sS'10006.6667'
p3856
I24
sS'0 4194.7600'
p3857
I384
sS'0 4119.5422'
p3858
I384
sS'0 8856.3467'
p3859
I4
sS'0 9084.4756'
p3860
I4
sS'0 4132.7511'
p3861
I384
sS'0 2119.2089'
p3862
I1020
sS'0 4059.3511'
p3863
I384
sS'0 4089.4800'
p3864
I384
sS'0 4701.4667'
p3865
I144
sS'0 4209.7067'
p3866
I384
sS'0 5093.1333'
p3867
I64
sS'0 2840.2800'
p3868
I1020
sS'0 5149.4667'
p3869
I64
sS'0 3052.2756'
p3870
I1020
sS'0 7654.2089'
p3871
I4
sS'0 3083.2800'
p3872
I1020
sS'0 4115.5556'
p3873
I384
sS'0 5094.1333'
p3874
I64
sS'0 4074.3467'
p3875
I384
sS'0 4118.4222'
p3876
I384
sS'0 9109.2089'
p3877
I4
sS'0 9100.4889'
p3878
I4
sS'0 3112.2089'
p3879
I1020
sS'0 4110.2756'
p3880
I384
sS'0 9052.2800'
p3881
I4
sS'0 8874.5511'
p3882
I4
sS'0 9116.5422'
p3883
I4
sS'0 4691.3333'
p3884
I144
sS'0 3099.4222'
p3885
I1020
sS'0 4222.2756'
p3886
I384
sS'0 1911.3467'
p3887
I1020
sS'0 9084.4800'
p3888
I4
sS'0 2872.4178'
p3889
I1020
sS'0 9351.2756'
p3890
I4
sS'0 2617.3511'
p3891
I1020
sS'0 4592.8667'
p3892
I144
sS'0 9321.3467'
p3893
I4
sS'0 9357.7422'
p3894
I4
sS'0 9309.2756'
p3895
I4
sS'10002.6667'
p3896
I24
sS'10009.6667'
p3897
I24
sS'0 3084.4933'
p3898
I1020
sS'0 4175.4222'
p3899
I384
sS'0 9355.4844'
p3900
I4
sS'0 4102.5644'
p3901
I384
sS'0 4133.2089'
p3902
I384
sS'0 4158.4756'
p3903
I384
sS'0 4706.1333'
p3904
I144
sS'0 3325.6089'
p3905
I1020
sS'0 4103.6356'
p3906
I384
sS'0 9084.5556'
p3907
I4
sS'0 4042.6222'
p3908
I384
sS'0 4194.5511'
p3909
I384
sS'0 4089.5644'
p3910
I384
sS'0 4689.3333'
p3911
I144
sS'0 8795.2756'
p3912
I4
sS'0 4104.4889'
p3913
I384
sS'0 5161.3333'
p3914
I64
sS'0 4071.5644'
p3915
I384
sS'0 3082.3511'
p3916
I1020
sS'0 2842.4222'
p3917
I1020
sS'0 4164.8889'
p3918
I384
sS'0 4103.7511'
p3919
I384
sS'0 4134.4133'
p3920
I384
sS'0 3357.3467'
p3921
I1020
sS'0 9277.3422'
p3922
I4
sS'0 9324.5600'
p3923
I4
sS'0 5039.4667'
p3924
I64
sS'10010.8667'
p3925
I24
sS'0 2843.4178'
p3926
I1020
sS'0 4179.6933'
p3927
I384
sS'10011.8667'
p3928
I24
sS'0 5100.2000'
p3929
I64
sS'0 5053.1333'
p3930
I64
sS'0 3325.6133'
p3931
I1020
sS'10102.6000'
p3932
I4
sS'0 3115.6311'
p3933
I1020
sS'0 5044.6000'
p3934
I64
sS'0 4126.2756'
p3935
I384
sS'0 9324.5467'
p3936
I4
sS'0 4218.4800'
p3937
I384
sS'0 4119.8089'
p3938
I384
sS'0 3338.4222'
p3939
I1020
sS'0 9352.3511'
p3940
I4
sS'10010.8000'
p3941
I24
sS'0 5169.2000'
p3942
I64
sS'0 4220.5511'
p3943
I384
sS'0 4193.4133'
p3944
I384
sS'0 4221.4800'
p3945
I384
sS'0 5098.3333'
p3946
I64
sS'0 2360.2089'
p3947
I1020
sS'0 4074.4889'
p3948
I384
sS'0 4103.6133'
p3949
I384
sS'0 4103.8400'
p3950
I384
sS'0 4220.4933'
p3951
I384
sS'0 4132.4133'
p3952
I384
sS'0 4223.8222'
p3953
I384
sS'0 4193.5422'
p3954
I384
sS'0 4221.3467'
p3955
I384
sS'0 4175.6178'
p3956
I384
sS'0 9100.6356'
p3957
I4
sS'0 3353.4133'
p3958
I1020
sS'0 2859.2800'
p3959
I1020
sS'0 2843.3467'
p3960
I1020
sS'0 4622.2000'
p3961
I144
sS'0 4129.4756'
p3962
I384
sS'0 4164.7689'
p3963
I384
sS'0 4179.9111'
p3964
I384
sS'0 4126.2800'
p3965
I384
sS'0 3116.4089'
p3966
I1020
sS'0 9356.4800'
p3967
I4
sS'0 8857.2800'
p3968
I4
sS'0 4089.7644'
p3969
I384
sS'0 4104.8089'
p3970
I384
sS'0 4134.4089'
p3971
I384
sS'0 4119.8889'
p3972
I384
sS'0 9082.4222'
p3973
I4
sS'0 4119.9067'
p3974
I384
sS'0 8393.4800'
p3975
I4
sS'0 4177.5600'
p3976
I384
sS'0 4134.6089'
p3977
I384
sS'0 4104.8889'
p3978
I384
sS'0 4194.2756'
p3979
I384
sS'0 4173.4844'
p3980
I384
sS'0 4058.5422'
p3981
I384
sS'0 4204.2089'
p3982
I384
sS'0 5173.4000'
p3983
I64
sS'0 4059.9022'
p3984
I384
sS'0 8874.5644'
p3985
I4
sS'0 3309.3511'
p3986
I1020
sS'0 2151.2756'
p3987
I1020
sS'0 3036.2756'
p3988
I1020
sS'0 4219.4889'
p3989
I384
sS'0 9291.2800'
p3990
I4
sS'0 8151.2800'
p3991
I4
sS'0 9293.2756'
p3992
I4
sS'0 2859.3511'
p3993
I1020
sS'0 3096.3467'
p3994
I1020
sS'0 4134.6889'
p3995
I384
sS'0 3354.4889'
p3996
I1020
sS'0 2841.3422'
p3997
I1020
sS'0 3341.4844'
p3998
I1020
sS'0 2617.4178'
p3999
I1020
sS'10211.6667'
p4000
I4
sS'0 3324.3422'
p4001
I1020
sS'0 4714.1333'
p4002
I144
sS'10006.3333'
p4003
I24
sS'0 4652.4000'
p4004
I144
sS'0 4104.5644'
p4005
I384
sS'0 3354.4089'
p4006
I1020
sS'0 4219.4089'
p4007
I384
sS'0 4103.8356'
p4008
I384
sS'0 4562.2000'
p4009
I144
sS'0 4162.5556'
p4010
I384
sS'0 4119.6222'
p4011
I384
sS'0 4623.4667'
p4012
I144
sS'0 4186.2756'
p4013
I384
sS'0 8633.2756'
p4014
I4
sS'0 4059.6844'
p4015
I384
sS'0 4174.4222'
p4016
I384
sS'0 4174.4889'
p4017
I384
sS'0 4044.8133'
p4018
I384
sS'0 8875.6222'
p4019
I4
sS'0 4207.4222'
p4020
I384
sS'0 4223.6889'
p4021
I384
sS'0 5143.1333'
p4022
I64
sS'0 4701.9333'
p4023
I144
sS'0 4056.4889'
p4024
I384
sS'0 4084.4089'
p4025
I384
sS'0 5116.1333'
p4026
I64
sS'0 3309.2800'
p4027
I1020
sS'0 4223.6089'
p4028
I384
sS'0 4682.2667'
p4029
I144
sS'0 9339.5422'
p4030
I4
sS'0 2377.3422'
p4031
I1020
sS'0 4607.4000'
p4032
I144
sS'0 4104.7467'
p4033
I384
sS'0 4146.6800'
p4034
I384
sS'0 4174.4089'
p4035
I384
sS'0 4118.8222'
p4036
I384
sS'0 5037.4000'
p4037
I64
sS'0 5133.1333'
p4038
I64
sS'0 4085.5511'
p4039
I384
sS'0 4672.2667'
p4040
I144
sS'0 4042.6933'
p4041
I384
sS'0 4114.3422'
p4042
I384
sS'0 2827.4222'
p4043
I1020
sS'0 4088.7022'
p4044
I384
sS'0 4116.6889'
p4045
I384
sS'0 4074.6933'
p4046
I384
sS'0 8634.3422'
p4047
I4
sS'0 9309.4222'
p4048
I4
sS'0 5134.4667'
p4049
I64
sS'0 4652.8000'
p4050
I144
sS'0 5178.2667'
p4051
I64
sS'0 4164.7511'
p4052
I384
sS'0 4114.2089'
p4053
I384
sS'0 4104.7644'
p4054
I384
sS'0 5095.2000'
p4055
I64
sS'0 3068.2800'
p4056
I1020
sS'0 4134.3467'
p4057
I384
sS'0 8151.3422'
p4058
I4
sS'0 4222.7644'
p4059
I384
sS'0 4159.4178'
p4060
I384
sS'0 2344.2089'
p4061
I1020
sS'0 4116.6089'
p4062
I384
sS'0 4072.5422'
p4063
I384
sS'0 5149.1333'
p4064
I64
sS'0 4683.7333'
p4065
I144
sS'0 4068.2089'
p4066
I384
sS'0 2631.2800'
p4067
I1020
sS'0 4056.6222'
p4068
I384
sS'0 4179.2756'
p4069
I384
sS'0 4206.6178'
p4070
I384
sS'0 4579.6000'
p4071
I144
sS'0 3115.2800'
p4072
I1020
sS'0 2811.3467'
p4073
I1020
sS'0 4038.2800'
p4074
I384
sS'0 9353.4756'
p4075
I4
sS'0 5054.2667'
p4076
I64
sS'0 3109.2089'
p4077
I1020
sS'0 4698.4000'
p4078
I144
sS'0 4670.6667'
p4079
I144
sS'0 5113.2667'
p4080
I64
sS'10104.6000'
p4081
I4
sS'0 4689.4667'
p4082
I144
sS'0 5087.4667'
p4083
I64
sS'0 4103.6222'
p4084
I384
sS'0 8361.2089'
p4085
I4
sS'0 8633.4178'
p4086
I4
sS'0 4159.5556'
p4087
I384
sS'0 4085.6356'
p4088
I384
sS'0 3292.4178'
p4089
I1020
sS'0 4671.2667'
p4090
I144
sS'10111.2667'
p4091
I4
sS'10014.1333'
p4092
I24
sS'0 3340.6133'
p4093
I1020
sS'0 4133.4933'
p4094
I384
sS'0 4101.6178'
p4095
I384
sS'0 4164.3511'
p4096
I384
sS'0 9035.2089'
p4097
I4
sS'0 4675.5333'
p4098
I144
sS'0 9308.2800'
p4099
I4
sS'0 9308.2756'
p4100
I4
sS'0 4148.3467'
p4101
I384
sS'0 4149.9156'
p4102
I384
sS'0 4179.2800'
p4103
I384
sS'0 9114.5467'
p4104
I4
sS'0 4578.5333'
p4105
I144
sS'0 2859.4178'
p4106
I1020
sS'0 4179.4756'
p4107
I384
sS'0 4044.6844'
p4108
I384
sS'0 5209.3333'
p4109
I64
sS'0 4119.7511'
p4110
I384
sS'0 9341.4933'
p4111
I4
sS'0 5124.2000'
p4112
I64
sS'0 4685.4000'
p4113
I144
sS'0 8632.2756'
p4114
I4
sS'0 4043.2800'
p4115
I384
sS'0 4223.4933'
p4116
I384
sS'0 4146.5644'
p4117
I384
sS'0 4705.8000'
p4118
I144
sS'0 4059.4089'
p4119
I384
sS'0 4223.5511'
p4120
I384
sS'0 3083.4133'
p4121
I1020
sS'0 4194.6978'
p4122
I384
sS'0 4041.7022'
p4123
I384
sS'0 3324.4089'
p4124
I1020
sS'0 4143.3422'
p4125
I384
sS'10113.7333'
p4126
I4
sS'0 5115.5333'
p4127
I64
sS'10005.6667'
p4128
I24
sS'0 4133.4756'
p4129
I384
sS'0 4089.8133'
p4130
I384
sS'0 4608.8000'
p4131
I144
sS'0 4044.6267'
p4132
I384
sS'0 8634.4089'
p4133
I4
sS'0 4190.4178'
p4134
I384
sS'0 2634.5467'
p4135
I1020
sS'0 4089.6178'
p4136
I384
sS'0 4687.6667'
p4137
I144
sS'0 4059.4889'
p4138
I384
sS'0 4057.6933'
p4139
I384
sS'0 4639.3333'
p4140
I144
sS'0 2135.2089'
p4141
I1020
sS'0 2632.4133'
p4142
I1020
sS'0 3324.4889'
p4143
I1020
sS'0 4723.6000'
p4144
I144
sS'0 4714.4667'
p4145
I144
sS'0 8375.2089'
p4146
I4
sS'0 5202.2667'
p4147
I64
sS'0 2152.4089'
p4148
I1020
sS'0 4148.5600'
p4149
I384
sS'0 4072.6311'
p4150
I384
sS'0 4073.5644'
p4151
I384
sS'0 9325.4178'
p4152
I4
sS'0 4089.4756'
p4153
I384
sS'0 9084.5422'
p4154
I4
sS'0 4073.8489'
p4155
I384
sS'0 8859.4844'
p4156
I4
sS'0 4172.4133'
p4157
I384
sS'0 4721.3333'
p4158
I144
sS'0 4702.7333'
p4159
I144
sS'0 2810.2756'
p4160
I1020
sS'0 4162.7600'
p4161
I384
sS'0 5191.1333'
p4162
I64
sS'0 3325.5511'
p4163
I1020
sS'0 4691.2667'
p4164
I144
sS'0 4161.6267'
p4165
I384
sS'0 4133.2756'
p4166
I384
sS'0 4089.4133'
p4167
I384
sS'0 4161.5467'
p4168
I384
sS'0 4706.2667'
p4169
I144
sS'0 4159.3511'
p4170
I384
sS'0 4209.5422'
p4171
I384
sS'0 9338.2756'
p4172
I4
sS'0 3293.2089'
p4173
I1020
sS'0 4164.6311'
p4174
I384
sS'0 4134.8311'
p4175
I384
sS'0 9336.3422'
p4176
I4
sS'0 8152.2089'
p4177
I4
sS'0 4131.4844'
p4178
I384
sS'0 4657.2667'
p4179
I144
sS'0 4691.2000'
p4180
I144
sS'0 4638.6667'
p4181
I144
sS'0 9115.5422'
p4182
I4
sS'0 3325.6356'
p4183
I1020
sS'0 3355.6356'
p4184
I1020
sS'0 4145.2089'
p4185
I384
sS'0 4164.6178'
p4186
I384
sS'0 4222.3511'
p4187
I384
sS'0 4039.5600'
p4188
I384
sS'0 4104.2756'
p4189
I384
sS'0 9341.6267'
p4190
I4
sS'0 4179.7067'
p4191
I384
sS'0 9309.3422'
p4192
I4
sS'0 3340.4933'
p4193
I1020
sS'0 9084.4178'
p4194
I4
sS'0 5039.2667'
p4195
I64
sS'0 5070.3333'
p4196
I64
sS'0 4175.5511'
p4197
I384
sS'0 9351.2089'
p4198
I4
sS'0 5177.6667'
p4199
I64
sS'0 8872.4178'
p4200
I4
sS'0 5079.1333'
p4201
I64
sS'0 4099.5511'
p4202
I384
sS'0 4691.4000'
p4203
I144
sS'0 9353.3422'
p4204
I4
sS'0 4040.5600'
p4205
I384
sS'0 5145.3333'
p4206
I64
sS'0 2393.4089'
p4207
I1020
sS'0 4116.6844'
p4208
I384
sS'0 2874.4133'
p4209
I1020
sS'0 9340.6089'
p4210
I4
sS'0 3116.6222'
p4211
I1020
sS'0 4071.4133'
p4212
I384
sS'0 4114.5556'
p4213
I384
sS'0 4204.4133'
p4214
I384
sS'0 5053.4667'
p4215
I64
sS'0 2393.4889'
p4216
I1020
sS'0 2345.2089'
p4217
I1020
sS'0 4608.6000'
p4218
I144
sS'0 9323.4756'
p4219
I4
sS'0 4209.2089'
p4220
I384
sS'0 4675.8667'
p4221
I144
sS'0 3321.2756'
p4222
I1020
sS'0 4087.7022'
p4223
I384
sS'0 4194.9067'
p4224
I384
sS'0 5130.3333'
p4225
I64
sS'0 4087.7422'
p4226
I384
sS'0 9081.3422'
p4227
I4
sS'0 4674.8667'
p4228
I144
sS'0 3340.3467'
p4229
I1020
sS'0 4218.4756'
p4230
I384
sS'0 4072.7689'
p4231
I384
sS'0 5098.2667'
p4232
I64
sS'0 9100.4800'
p4233
I4
sS'0 4179.8844'
p4234
I384
sS'0 4164.8400'
p4235
I384
sS'0 4130.3511'
p4236
I384
sS'0 4164.9200'
p4237
I384
sS'0 4126.3422'
p4238
I384
sS'0 4043.8400'
p4239
I384
sS'0 9324.4756'
p4240
I4
sS'0 4667.4667'
p4241
I144
sS'0 4117.6800'
p4242
I384
sS'0 4203.2756'
p4243
I384
sS'0 4675.8000'
p4244
I144
sS'0 4134.6311'
p4245
I384
sS'0 8617.3467'
p4246
I4
sS'0 4100.6178'
p4247
I384
sS'0 4086.2089'
p4248
I384
sS'0 5098.2000'
p4249
I64
sS'0 4206.5644'
p4250
I384
sS'0 5071.6667'
p4251
I64
sS'0 4221.4133'
p4252
I384
sS'0 4193.6178'
p4253
I384
sS'0 8633.3422'
p4254
I4
sS'0 3353.3467'
p4255
I1020
sS'0 3341.6933'
p4256
I1020
sS'0 4690.3333'
p4257
I144
sS'0 4088.4756'
p4258
I384
sS'0 4655.1333'
p4259
I144
sS'0 4657.5333'
p4260
I144
sS'0 4043.7022'
p4261
I384
sS'0 5065.1333'
p4262
I64
sS'0 4171.2089'
p4263
I384
sS'0 4074.7778'
p4264
I384
sS'0 4627.6000'
p4265
I144
sS'0 2359.2089'
p4266
I1020
sS'0 4058.4756'
p4267
I384
sS'0 4101.4889'
p4268
I384
sS'0 4639.6667'
p4269
I144
sS'0 9052.4222'
p4270
I4
sS'0 4071.6089'
p4271
I384
sS'0 9337.3511'
p4272
I4
sS'0 9341.2800'
p4273
I4
sS'0 3098.4178'
p4274
I1020
sS'0 4103.8222'
p4275
I384
sS'0 2855.2089'
p4276
I1020
sS'0 4132.4800'
p4277
I384
sS'0 4220.6222'
p4278
I384
sS'0 3293.4222'
p4279
I1020
sS'0 4059.8311'
p4280
I384
sS'0 4642.8000'
p4281
I144
sS'0 9115.4933'
p4282
I4
sS'0 5069.1333'
p4283
I64
sS'0 4194.3422'
p4284
I384
sS'0 4164.5467'
p4285
I384
sS'10113.5333'
p4286
I4
sS'0 4071.6889'
p4287
I384
sS'0 4611.1333'
p4288
I144
sS'0 3096.2756'
p4289
I1020
sS'0 4194.7556'
p4290
I384
sS'0 4223.6756'
p4291
I384
sS'0 4146.6756'
p4292
I384
sS'0 2859.4756'
p4293
I1020
sS'0 4658.1333'
p4294
I144
sS'0 3081.3467'
p4295
I1020
sS'0 9293.2800'
p4296
I4
sS'0 9099.2089'
p4297
I4
sS'0 2392.2089'
p4298
I1020
sS'0 2634.3511'
p4299
I1020
sS'0 4104.6311'
p4300
I384
sS'0 3341.4133'
p4301
I1020
sS'0 9323.4133'
p4302
I4
sS'0 1910.2800'
p4303
I1020
sS'0 2842.2800'
p4304
I1020
sS'0 4638.3333'
p4305
I144
sS'0 4041.5556'
p4306
I384
sS'0 4713.8667'
p4307
I144
sS'0 3357.6800'
p4308
I1020
sS'0 5205.1333'
p4309
I64
sS'0 9115.5511'
p4310
I4
sS'0 4070.5556'
p4311
I384
sS'0 4130.4089'
p4312
I384
sS'0 9114.4800'
p4313
I4
sS'0 4164.4844'
p4314
I384
sS'0 9336.2756'
p4315
I4
sS'0 5099.3333'
p4316
I64
sS'0 4701.8000'
p4317
I144
sS'0 3354.5556'
p4318
I1020
sS'0 3352.4089'
p4319
I1020
sS'0 4205.3511'
p4320
I384
sS'0 9100.6178'
p4321
I4
sS'0 9337.4089'
p4322
I4
sS'0 4059.6311'
p4323
I384
sS'0 9114.3467'
p4324
I4
sS'0 8393.2089'
p4325
I4
sS'0 4056.6756'
p4326
I384
sS'0 4044.5511'
p4327
I384
sS'0 3339.5511'
p4328
I1020
sS'0 4130.4889'
p4329
I384
sS'0 9325.4800'
p4330
I4
sS'0 3339.4178'
p4331
I1020
sS'0 9325.3467'
p4332
I4
sS'0 2811.2800'
p4333
I1020
sS'0 4058.6267'
p4334
I384
sS'10104.1333'
p4335
I4
sS'0 4118.6756'
p4336
I384
sS'0 4057.4844'
p4337
I384
sS'0 4088.6311'
p4338
I384
sS'0 3341.5511'
p4339
I1020
sS'0 4215.2800'
p4340
I384
sS'0 2870.2756'
p4341
I1020
sS'0 4178.8089'
p4342
I384
sS'0 8617.4089'
p4343
I4
sS'0 4654.6000'
p4344
I144
sS'0 5190.2000'
p4345
I64
sS'0 9323.3422'
p4346
I4
sS'0 8827.2756'
p4347
I4
sS'0 4132.2756'
p4348
I384
sS'0 3084.4089'
p4349
I1020
sS'0 4071.3467'
p4350
I384
sS'0 4205.6267'
p4351
I384
sS'0 3355.4089'
p4352
I1020
sS'0 4134.2756'
p4353
I384
sS'0 5089.8000'
p4354
I64
sS'0 4222.6133'
p4355
I384
sS'0 4149.4844'
p4356
I384
sS'0 5059.2667'
p4357
I64
sS'0 3036.3467'
p4358
I1020
sS'0 5149.6667'
p4359
I64
sS'0 5051.1333'
p4360
I64
sS'0 4149.7467'
p4361
I384
sS'0 9308.3422'
p4362
I4
sS'0 5221.1333'
p4363
I64
sS'0 4044.4133'
p4364
I384
sS'0 3099.4089'
p4365
I1020
sS'0 4675.4000'
p4366
I144
sS'0 3292.2800'
p4367
I1020
sS'0 4116.6267'
p4368
I384
sS'0 3068.3422'
p4369
I1020
sS'0 4179.3422'
p4370
I384
sS'0 4689.9333'
p4371
I144
sS'0 5071.3333'
p4372
I64
sS'0 2811.2756'
p4373
I1020
sS'0 3325.3467'
p4374
I1020
sS'0 4098.4889'
p4375
I384
sS'0 5057.1333'
p4376
I64
sS'0 4086.6089'
p4377
I384
sS'0 2618.4178'
p4378
I1020
sS'0 5113.1333'
p4379
I64
sS'0 4036.3467'
p4380
I384
sS'0 9325.6178'
p4381
I4
sS'0 4209.6089'
p4382
I384
sS'0 4207.6356'
p4383
I384
sS'0 4073.6933'
p4384
I384
sS'0 4655.5333'
p4385
I144
sS'0 3309.4756'
p4386
I1020
sS'0 4699.7333'
p4387
I144
sS'0 4207.7556'
p4388
I384
sS'0 3323.2800'
p4389
I1020
sS'0 9099.5422'
p4390
I4
sS'10105.4667'
p4391
I4
sS'0 4205.5600'
p4392
I384
sS'10111.1333'
p4393
I4
sS'0 4671.1333'
p4394
I144
sS'0 5186.2667'
p4395
I64
sS'0 4187.2089'
p4396
I384
sS'0 3340.5467'
p4397
I1020
sS'0 8843.2756'
p4398
I4
sS'0 4209.6267'
p4399
I384
sS'0 2875.4178'
p4400
I1020
sS'0 5207.4667'
p4401
I64
sS'0 5219.5333'
p4402
I64
sS'0 5130.4667'
p4403
I64
sS'0 4209.7022'
p4404
I384
sS'0 4067.3467'
p4405
I384
sS'0 4148.4133'
p4406
I384
sS'0 5074.5333'
p4407
I64
sS'0 5083.1333'
p4408
I64
sS'0 8825.2089'
p4409
I4
sS'0 9304.2089'
p4410
I4
sS'0 4207.6978'
p4411
I384
sS'0 5143.4000'
p4412
I64
sS'0 3336.3511'
p4413
I1020
sS'0 4627.2000'
p4414
I144
sS'0 5148.6667'
p4415
I64
sS'0 4074.3422'
p4416
I384
sS'0 5209.2000'
p4417
I64
sS'0 8618.4933'
p4418
I4
sS'0 4190.2800'
p4419
I384
sS'0 4069.5644'
p4420
I384
sS'0 4058.7733'
p4421
I384
sS'0 3353.2089'
p4422
I1020
sS'0 4100.3467'
p4423
I384
sS'0 2599.2089'
p4424
I1020
sS'0 4157.3511'
p4425
I384
sS'0 3340.4222'
p4426
I1020
sS'0 3083.3467'
p4427
I1020
sS'0 4194.5556'
p4428
I384
sS'0 2872.4133'
p4429
I1020
sS'0 4038.4889'
p4430
I384
sS'0 9321.3422'
p4431
I4
sS'0 9357.7467'
p4432
I4
sS'0 9353.4222'
p4433
I4
sS'0 4718.8000'
p4434
I144
sS'0 4041.6800'
p4435
I384
sS'0 5159.1333'
p4436
I64
sS'0 5194.4000'
p4437
I64
sS'0 9355.4800'
p4438
I4
sS'0 9335.2089'
p4439
I4
sS'0 4101.6756'
p4440
I384
sS'0 9100.4844'
p4441
I4
sS'0 9051.2089'
p4442
I4
sS'0 4716.6000'
p4443
I144
sS'0 4638.7333'
p4444
I144
sS'0 2393.3511'
p4445
I1020
sS'0 4089.5600'
p4446
I384
sS'0 3357.2800'
p4447
I1020
sS'0 5220.2000'
p4448
I64
sS'0 4639.9333'
p4449
I144
sS'0 4209.4133'
p4450
I384
sS'0 7879.2089'
p4451
I4
sS'0 4714.7333'
p4452
I144
sS'0 3274.2089'
p4453
I1020
sS'0 4134.4178'
p4454
I384
sS'0 3111.2800'
p4455
I1020
sS'0 4222.4089'
p4456
I384
sS'0 9357.4844'
p4457
I4
sS'0 9277.3467'
p4458
I4
sS'0 9324.5644'
p4459
I4
sS'0 5155.1333'
p4460
I64
sS'0 2393.4844'
p4461
I1020
sS'0 4089.6267'
p4462
I384
sS'0 4721.2000'
p4463
I144
sS'0 9340.6311'
p4464
I4
sS'0 9084.3467'
p4465
I4
sS'0 4119.2800'
p4466
I384
sS'0 4194.6356'
p4467
I384
sS'0 9067.3511'
p4468
I4
sS'0 4103.6311'
p4469
I384
sS'0 4042.6267'
p4470
I384
sS'0 3350.2800'
p4471
I1020
sS'0 4205.5467'
p4472
I384
sS'10010.2667'
p4473
I24
sS'0 4563.3333'
p4474
I144
sS'0 4043.6933'
p4475
I384
sS'0 9340.4800'
p4476
I4
sS'0 4161.4756'
p4477
I384
sS'0 3338.4889'
p4478
I1020
sS'0 4220.5556'
p4479
I384
sS'10006.5333'
p4480
I24
sS'0 5068.2000'
p4481
I64
sS'0 4193.4178'
p4482
I384
sS'0 4221.4844'
p4483
I384
sS'0 4103.8444'
p4484
I384
sS'0 4209.5511'
p4485
I384
sS'0 9308.4089'
p4486
I4
sS'0 9306.3511'
p4487
I4
sS'0 4156.3511'
p4488
I384
sS'0 2361.2756'
p4489
I1020
sS'0 4177.6356'
p4490
I384
sS'0 4070.4933'
p4491
I384
sS'0 4118.2089'
p4492
I384
sS'0 4164.7644'
p4493
I384
sS'0 4042.6844'
p4494
I384
sS'0 5156.2000'
p4495
I64
sS'0 5174.2667'
p4496
I64
sS'0 8872.3511'
p4497
I4
sS'0 8391.2089'
p4498
I4
sS'0 4134.2089'
p4499
I384
sS'0 4625.7333'
p4500
I144
sS'0 3321.2800'
p4501
I1020
sS'0 5148.4667'
p4502
I64
sS'0 9356.4844'
p4503
I4
sS'0 4117.6356'
p4504
I384
sS'0 9083.4133'
p4505
I4
sS'0 4089.7600'
p4506
I384
sS'0 4178.4222'
p4507
I384
sS'0 4189.2800'
p4508
I384
sS'0 4059.9200'
p4509
I384
sS'0 8842.4133'
p4510
I4
sS'0 3338.4089'
p4511
I1020
sS'0 4132.4178'
p4512
I384
sS'0 7910.2089'
p4513
I4
sS'0 5189.4000'
p4514
I64
sS'0 4206.4133'
p4515
I384
sS'0 5125.2000'
p4516
I64
sS'0 4103.4756'
p4517
I384
sS'0 4104.8844'
p4518
I384
sS'0 5104.2000'
p4519
I64
sS'0 4149.2089'
p4520
I384
sS'0 4173.4889'
p4521
I384
sS'0 9079.2089'
p4522
I4
sS'0 4089.2800'
p4523
I384
sS'0 4059.9067'
p4524
I384
sS'0 5219.1333'
p4525
I64
sS'0 9309.5511'
p4526
I4
sS'0 4219.4844'
p4527
I384
sS'0 4134.6844'
p4528
I384
sS'0 3356.6889'
p4529
I1020
sS'0 3096.3422'
p4530
I1020
sS'0 2841.3467'
p4531
I1020
sS'0 2617.4133'
p4532
I1020
sS'0 3341.4800'
p4533
I1020
sS'0 4071.6311'
p4534
I384
sS'0 5142.2667'
p4535
I64
sS'0 4074.8489'
p4536
I384
sS'0 4134.7422'
p4537
I384
sS'0 4163.5511'
p4538
I384
sS'0 5134.6667'
p4539
I64
sS'0 4119.9022'
p4540
I384
sS'0 4116.7067'
p4541
I384
sS'0 4163.4933'
p4542
I384
sS'0 4189.3511'
p4543
I384
sS'0 5100.2667'
p4544
I64
sS'0 4172.3467'
p4545
I384
sS'0 8345.2756'
p4546
I4
sS'0 4119.6267'
p4547
I384
sS'0 4044.8933'
p4548
I384
sS'0 4104.6089'
p4549
I384
sS'0 4221.5600'
p4550
I384
sS'0 4142.3467'
p4551
I384
sS'0 4193.7467'
p4552
I384
sS'0 9339.5467'
p4553
I4
sS'0 8120.2800'
p4554
I4
sS'0 4164.5600'
p4555
I384
sS'0 4085.4133'
p4556
I384
sS'0 3356.4222'
p4557
I1020
sS'0 5130.6000'
p4558
I64
sS'0 4114.3467'
p4559
I384
sS'0 4074.6978'
p4560
I384
sS'0 4639.5333'
p4561
I144
sS'0 5041.2000'
p4562
I64
sS'0 4655.8000'
p4563
I144
sS'0 8840.2800'
p4564
I4
sS'0 4209.8133'
p4565
I384
sS'0 4118.8489'
p4566
I384
sS'0 4104.7689'
p4567
I384
sS'0 4206.4222'
p4568
I384
sS'0 3354.4222'
p4569
I1020
sS'0 4058.8267'
p4570
I384
sS'0 4626.8667'
p4571
I144
sS'0 4177.2800'
p4572
I384
sS'0 4175.2756'
p4573
I384
sS'0 4221.6800'
p4574
I384
sS'0 4099.3422'
p4575
I384
sS'0 3098.4844'
p4576
I1020
sS'0 3352.3422'
p4577
I1020
sS'0 4149.8489'
p4578
I384
sS'0 5041.6000'
p4579
I64
sS'0 9325.5467'
p4580
I4
sS'0 5162.5333'
p4581
I64
sS'0 4690.8667'
p4582
I144
sS'0 4161.2800'
p4583
I384
sS'0 5146.1333'
p4584
I64
sS'0 4203.4222'
p4585
I384
sS'10300.0000'
p4586
I4
sS'0 3081.2756'
p4587
I1020
sS'0 4118.6889'
p4588
I384
sS'0 9307.2089'
p4589
I4
sS'0 4206.6133'
p4590
I384
sS'0 4042.5467'
p4591
I384
sS'0 8361.3422'
p4592
I4
sS'0 2859.5511'
p4593
I1020
sS'0 5043.3333'
p4594
I64
sS'0 2586.3467'
p4595
I1020
sS'0 2827.4089'
p4596
I1020
sS'0 4134.9111'
p4597
I384
sS'0 4134.3422'
p4598
I384
sS'10013.6667'
p4599
I24
sS'0 4104.6756'
p4600
I384
sS'0 4044.7689'
p4601
I384
sS'0 4118.6089'
p4602
I384
sS'0 4073.7689'
p4603
I384
sS'0 3292.4133'
p4604
I1020
sS'0 4718.8667'
p4605
I144
sS'0 4608.6667'
p4606
I144
sS'0 4189.5556'
p4607
I384
sS'0 9114.4133'
p4608
I4
sS'0 4054.5511'
p4609
I384
sS'0 8855.2800'
p4610
I4
sS'0 3116.2089'
p4611
I1020
sS'0 4119.7733'
p4612
I384
sS'0 3355.3511'
p4613
I1020
sS'0 8618.3511'
p4614
I4
sS'0 4044.7467'
p4615
I384
sS'0 5179.4667'
p4616
I64
sS'0 5070.5333'
p4617
I64
sS'0 9114.5422'
p4618
I4
sS'0 2618.4756'
p4619
I1020
sS'0 4220.3511'
p4620
I384
sS'0 5154.2000'
p4621
I64
sS'0 2859.4133'
p4622
I1020
sS'0 3098.3422'
p4623
I1020
sS'0 5114.4000'
p4624
I64
sS'0 5116.6667'
p4625
I64
sS'0 4118.7422'
p4626
I384
sS'0 8843.4222'
p4627
I4
sS'0 3357.4933'
p4628
I1020
sS'0 4119.7556'
p4629
I384
sS'0 4133.7778'
p4630
I384
sS'0 5102.4667'
p4631
I64
sS'0 5116.6000'
p4632
I64
sS'0 5147.4667'
p4633
I64
sS'0 3067.3511'
p4634
I1020
sS'0 4059.5422'
p4635
I384
sS'0 4207.7022'
p4636
I384
sS'0 4146.5600'
p4637
I384
sS'0 4658.4000'
p4638
I144
sS'0 4704.9333'
p4639
I144
sS'10005.4667'
p4640
I24
sS'0 4148.2800'
p4641
I384
sS'0 4189.4178'
p4642
I384
sS'0 4194.6933'
p4643
I384
sS'0 4041.7067'
p4644
I384
sS'0 4055.6267'
p4645
I384
sS'0 4149.6978'
p4646
I384
sS'0 4149.6756'
p4647
I384
sS'0 4117.4089'
p4648
I384
sS'0 4688.6000'
p4649
I144
sS'0 5162.2667'
p4650
I64
sS'10008.6667'
p4651
I24
sS'0 5134.3333'
p4652
I64
sS'0 4044.6222'
p4653
I384
sS'0 8871.2089'
p4654
I4
sS'0 4059.4844'
p4655
I384
sS'0 3325.4133'
p4656
I1020
sS'0 4089.8178'
p4657
I384
sS'0 4190.4133'
p4658
I384
sS'0 9083.3467'
p4659
I4
sS'0 4057.6978'
p4660
I384
sS'0 4173.3422'
p4661
I384
sS'0 4219.2089'
p4662
I384
sS'0 4722.8667'
p4663
I144
sS'0 8859.4133'
p4664
I4
sS'0 9355.6356'
p4665
I4
sS'0 4058.6844'
p4666
I384
sS'0 4654.1333'
p4667
I144
sS'0 9339.5556'
p4668
I4
sS'0 3355.5556'
p4669
I1020
sS'0 5124.1333'
p4670
I64
sS'0 5074.4667'
p4671
I64
sS'0 9354.4756'
p4672
I4
sS'0 8377.2800'
p4673
I4
sS'0 4159.4844'
p4674
I384
sS'0 4683.5333'
p4675
I144
sS'10106.3333'
p4676
I4
sS'0 9084.5467'
p4677
I4
sS'0 9325.4133'
p4678
I4
sS'0 4720.8667'
p4679
I144
sS'0 4084.2089'
p4680
I384
sS'0 4672.5333'
p4681
I144
sS'0 3340.4756'
p4682
I1020
sS'0 8393.4178'
p4683
I4
sS'0 3309.4800'
p4684
I1020
sS'0 5073.7333'
p4685
I64
sS'0 4209.7556'
p4686
I384
sS'0 5164.4000'
p4687
I64
sS'0 3339.3422'
p4688
I1020
sS'0 4067.4133'
p4689
I384
sS'0 3309.5600'
p4690
I1020
sS'0 5074.4000'
p4691
I64
sS'0 4162.7644'
p4692
I384
sS'0 4109.2089'
p4693
I384
sS'0 4103.7644'
p4694
I384
sS'0 9340.4889'
p4695
I4
sS'0 3325.5556'
p4696
I1020
sS'0 3067.4222'
p4697
I1020
sS'0 9338.4844'
p4698
I4
sS'0 4056.3422'
p4699
I384
sS'0 4179.5467'
p4700
I384
sS'0 8874.4222'
p4701
I4
sS'0 4639.1333'
p4702
I144
sS'0 2843.4222'
p4703
I1020
sS'0 9293.4889'
p4704
I4
sS'0 3355.4178'
p4705
I1020
sS'0 8841.2089'
p4706
I4
sS'10008.3333'
p4707
I24
sS'0 8859.5467'
p4708
I4
sS'0 4131.4800'
p4709
I384
sS'0 4204.4844'
p4710
I384
sS'0 4073.4222'
p4711
I384
sS'0 8871.3467'
p4712
I4
sS'0 4637.8667'
p4713
I144
sS'0 9351.3467'
p4714
I4
sS'0 4653.5333'
p4715
I144
sS'0 9341.6222'
p4716
I4
sS'0 9357.6756'
p4717
I4
sS'0 4119.2756'
p4718
I384
sS'0 5188.2000'
p4719
I64
sS'0 4209.6844'
p4720
I384
sS'10107.6667'
p4721
I4
sS'0 4667.6667'
p4722
I144
sS'0 4638.8667'
p4723
I144
sS'0 5066.2000'
p4724
I64
sS'0 8392.2756'
p4725
I4
sS'0 4099.5556'
p4726
I384
sS'0 5146.4667'
p4727
I64
sS'0 9353.3467'
p4728
I4
sS'0 4699.9333'
p4729
I144
sS'0 3112.3511'
p4730
I1020
sS'0 4714.6000'
p4731
I144
sS'0 2875.4933'
p4732
I1020
sS'0 4639.8000'
p4733
I144
sS'0 4104.3422'
p4734
I384
sS'0 2393.4222'
p4735
I1020
sS'0 4723.4667'
p4736
I144
sS'0 4131.6311'
p4737
I384
sS'0 4194.9022'
p4738
I384
sS'0 3116.6089'
p4739
I1020
sS'0 5205.4000'
p4740
I64
sS'0 4179.8800'
p4741
I384
sS'0 8617.2800'
p4742
I4
sS'0 4712.7333'
p4743
I144
sS'0 2617.2089'
p4744
I1020
sS'0 4675.2667'
p4745
I144
sS'0 4669.2000'
p4746
I144
sS'10109.2000'
p4747
I4
sS'0 4103.5644'
p4748
I384
sS'0 4675.1333'
p4749
I144
sS'0 2152.2089'
p4750
I1020
sS'0 9112.4089'
p4751
I4
sS'0 4723.4000'
p4752
I144
sS'0 4043.8444'
p4753
I384
sS'0 4043.7600'
p4754
I384
sS'10108.9333'
p4755
I4
sS'0 4668.9333'
p4756
I144
sS'0 5147.1333'
p4757
I64
sS'10006.2667'
p4758
I24
sS'0 4220.4222'
p4759
I384
sS'0 4187.4222'
p4760
I384
sS'0 4723.5333'
p4761
I144
sS'0 4704.1333'
p4762
I144
sS'0 4103.5422'
p4763
I384
sS'0 4221.4178'
p4764
I384
sS'0 7910.2756'
p4765
I4
sS'0 4193.6133'
p4766
I384
sS'0 4131.4222'
p4767
I384
sS'0 4217.3422'
p4768
I384
sS'0 3353.3422'
p4769
I1020
sS'0 8359.2089'
p4770
I4
sS'0 4656.8000'
p4771
I144
sS'0 4718.7333'
p4772
I144
sS'0 9308.4889'
p4773
I4
sS'10113.4667'
p4774
I4
sS'0 9356.6978'
p4775
I4
sS'0 4204.4800'
p4776
I384
sS'0 2149.2089'
p4777
I1020
sS'0 5057.5333'
p4778
I64
sS'0 4126.3467'
p4779
I384
sS'0 5134.7333'
p4780
I64
sS'0 2826.3422'
p4781
I1020
sS'0 4085.2800'
p4782
I384
sS'0 4104.8178'
p4783
I384
sS'0 8602.4222'
p4784
I4
sS'0 5057.2667'
p4785
I64
sS'0 4610.2667'
p4786
I144
sS'0 5157.3333'
p4787
I64
sS'0 9094.2089'
p4788
I4
sS'0 5113.4000'
p4789
I64
sS'0 4043.5600'
p4790
I384
sS'0 4190.6222'
p4791
I384
sS'0 4052.4089'
p4792
I384
sS'0 4701.6667'
p4793
I144
sS'0 5084.2000'
p4794
I64
sS'0 4066.2089'
p4795
I384
sS'10108.1333'
p4796
I4
sS'0 4668.1333'
p4797
I144
sS'0 4119.6933'
p4798
I384
sS'0 3084.3422'
p4799
I1020
sS'0 4595.7333'
p4800
I144
sS'0 4194.8889'
p4801
I384
sS'0 4672.1333'
p4802
I144
sS'10112.1333'
p4803
I4
sS'0 4132.4844'
p4804
I384
sS'0 4220.6267'
p4805
I384
sS'0 4207.4933'
p4806
I384
sS'0 3116.4178'
p4807
I1020
sS'0 5170.2667'
p4808
I64
sS'0 4059.8356'
p4809
I384
sS'0 4104.5511'
p4810
I384
sS'0 5056.3333'
p4811
I64
sS'0 2151.3467'
p4812
I1020
sS'0 5084.5333'
p4813
I64
sS'0 9293.3467'
p4814
I4
sS'0 5074.8000'
p4815
I64
sS'0 4194.3467'
p4816
I384
sS'0 9337.2089'
p4817
I4
sS'0 4194.7511'
p4818
I384
sS'0 8152.3467'
p4819
I4
sS'0 3293.4089'
p4820
I1020
sS'0 3356.4756'
p4821
I1020
sS'0 3081.3422'
p4822
I1020
sS'0 4040.5511'
p4823
I384
sS'0 4056.5422'
p4824
I384
sS'0 4104.6356'
p4825
I384
sS'0 4652.5333'
p4826
I144
sS'0 4116.6356'
p4827
I384
sS'0 4162.2756'
p4828
I384
sS'0 3341.4178'
p4829
I1020
sS'0 3051.3511'
p4830
I1020
sS'0 4149.8311'
p4831
I384
sS'0 3293.4889'
p4832
I1020
sS'0 3357.6844'
p4833
I1020
sS'0 4562.3333'
p4834
I144
sS'0 4072.7556'
p4835
I384
sS'0 9115.5556'
p4836
I4
sS'0 4161.5511'
p4837
I384
sS'0 4190.4933'
p4838
I384
sS'0 4189.4756'
p4839
I384
sS'0 9114.4844'
p4840
I4
sS'0 4164.4800'
p4841
I384
sS'0 8859.5644'
p4842
I4
sS'0 4682.3333'
p4843
I144
sS'0 3354.5511'
p4844
I1020
sS'0 9111.3422'
p4845
I4
sS'0 4059.6356'
p4846
I384
sS'0 4088.6133'
p4847
I384
sS'0 9320.2800'
p4848
I4
sS'0 4074.9156'
p4849
I384
sS'0 9097.4222'
p4850
I4
sS'0 3308.4178'
p4851
I1020
sS'0 3339.5556'
p4852
I1020
sS'0 4698.6000'
p4853
I144
sS'0 2859.2089'
p4854
I1020
sS'0 4162.5467'
p4855
I384
sS'0 3357.7467'
p4856
I1020
sS'0 3113.3511'
p4857
I1020
sS'0 4699.5333'
p4858
I144
sS'0 9307.2756'
p4859
I4
sS'0 3100.2089'
p4860
I1020
sS'0 3341.5556'
p4861
I1020
sS'0 4088.6356'
p4862
I384
sS'0 4639.4000'
p4863
I144
sS'0 4100.2756'
p4864
I384
sS'0 4652.9333'
p4865
I144
sS'0 3291.2800'
p4866
I1020
sS'0 5071.2000'
p4867
I64
sS'0 4719.8667'
p4868
I144
sS'0 4177.4089'
p4869
I384
sS'0 4162.4756'
p4870
I384
sS'0 8393.4844'
p4871
I4
sS'0 3349.2089'
p4872
I1020
sS'0 5089.6000'
p4873
I64
sS'0 4149.4800'
p4874
I384
sS'0 5132.7333'
p4875
I64
sS'0 4044.8311'
p4876
I384
sS'0 4179.4800'
p4877
I384
sS'0 8570.2800'
p4878
I4
sS'0 8857.4133'
p4879
I4
sS'0 5162.4000'
p4880
I64
sS'0 4042.2800'
p4881
I384
sS'0 4193.5600'
p4882
I384
sS'0 4223.7467'
p4883
I384
sS'0 4611.3333'
p4884
I144
sS'0 4057.5422'
p4885
I384
sS'0 4175.2800'
p4886
I384
sS'0 8873.3511'
p4887
I4
sS'0 5147.5333'
p4888
I64
sS'0 4044.8178'
p4889
I384
sS'0 5149.8667'
p4890
I64
sS'0 4098.4844'
p4891
I384
sS'0 4712.2667'
p4892
I144
sS'0 4713.2667'
p4893
I144
sS'0 4073.7556'
p4894
I384
sS'0 5157.4000'
p4895
I64
sS'0 8634.2756'
p4896
I4
sS'0 9068.2756'
p4897
I4
sS'0 4222.7778'
p4898
I384
sS'0 4073.6978'
p4899
I384
sS'0 4204.5644'
p4900
I384
sS'0 5043.2000'
p4901
I64
sS'0 4071.3422'
p4902
I384
sS'0 4087.4178'
p4903
I384
sS'0 3340.6089'
p4904
I1020
sS'0 4194.7689'
p4905
I384
sS'0 5216.1333'
p4906
I64
sS'0 4147.7644'
p4907
I384
sS'0 4547.6667'
p4908
I144
sS'0 9098.4133'
p4909
I4
sS'0 3292.3467'
p4910
I1020
sS'0 2633.4178'
p4911
I1020
sS'0 3340.5422'
p4912
I1020
sS'0 4699.4000'
p4913
I144
sS'0 5206.6000'
p4914
I64
sS'0 2875.4133'
p4915
I1020
sS'0 4101.6889'
p4916
I384
sS'0 3325.2800'
p4917
I1020
sS'0 4579.7333'
p4918
I144
sS'0 4179.3467'
p4919
I384
sS'0 9052.2089'
p4920
I4
sS'0 4127.2089'
p4921
I384
sS'0 4148.4178'
p4922
I384
sS'0 5070.4000'
p4923
I64
sS'0 9100.5600'
p4924
I4
sS'0 4207.6933'
p4925
I384
sS'0 4133.8178'
p4926
I384
sS'0 8875.5511'
p4927
I4
sS'0 4207.7511'
p4928
I384
sS'0 5042.2000'
p4929
I64
sS'0 8875.4933'
p4930
I4
sS'0 5223.8000'
p4931
I64
sS'0 4642.2667'
p4932
I144
sS'0 4058.7778'
p4933
I384
sS'10005.7333'
p4934
I24
sS'0 4133.2800'
p4935
I384
sS'0 3350.2089'
p4936
I1020
sS'0 3083.3422'
p4937
I1020
sS'0 8614.2089'
p4938
I4
sS'0 5171.2667'
p4939
I64
sS'0 9339.4844'
p4940
I4
sS'0 8602.3422'
p4941
I4
sS'0 3341.3511'
p4942
I1020
sS'0 7911.2756'
p4943
I4
sS'0 4717.4000'
p4944
I144
sS'0 4041.6844'
p4945
I384
sS'0 3065.2756'
p4946
I1020
sS'0 4684.7333'
p4947
I144
sS'0 9083.2756'
p4948
I4
sS'0 4190.3467'
p4949
I384
sS'0 4592.8000'
p4950
I144
sS'0 4055.5511'
p4951
I384
sS'0 8389.2089'
p4952
I4
sS'0 8151.2089'
p4953
I4
sS'0 2615.2756'
p4954
I1020
sS'0 9080.2800'
p4955
I4
sS'0 3337.4222'
p4956
I1020
sS'10102.7333'
p4957
I4
sS'0 4117.5556'
p4958
I384
sS'0 3111.3467'
p4959
I1020
sS'0 4222.5422'
p4960
I384
sS'0 9113.3422'
p4961
I4
sS'0 4209.4178'
p4962
I384
sS'0 4131.4756'
p4963
I384
sS'10110.8000'
p4964
I4
sS'0 9035.2800'
p4965
I4
sS'0 4164.8800'
p4966
I384
sS'0 4203.3422'
p4967
I384
sS'0 4683.6667'
p4968
I144
sS'0 9357.4800'
p4969
I4
sS'0 3113.4756'
p4970
I1020
sS'0 4594.1333'
p4971
I144
sS'0 4038.4844'
p4972
I384
sS'0 4672.6667'
p4973
I144
sS'0 4173.4178'
p4974
I384
sS'0 5179.3333'
p4975
I64
sS'0 9341.6756'
p4976
I4
sS'0 4172.3422'
p4977
I384
sS'0 4156.3467'
p4978
I384
sS'0 5131.4000'
p4979
I64
sS'0 4194.6311'
p4980
I384
sS'0 9340.6356'
p4981
I4
sS'0 9084.3422'
p4982
I4
sS'0 8151.3511'
p4983
I4
sS'10108.4000'
p4984
I4
sS'0 4668.4000'
p4985
I144
sS'0 9336.2089'
p4986
I4
sS'0 4205.5422'
p4987
I384
sS'0 2795.2089'
p4988
I1020
sS'0 3352.3467'
p4989
I1020
sS'0 4089.8756'
p4990
I384
sS'0 4641.8000'
p4991
I144
sS'0 4161.4933'
p4992
I384
sS'0 4039.3511'
p4993
I384
sS'10009.2667'
p4994
I24
sS'0 5042.3333'
p4995
I64
sS'0 8630.2089'
p4996
I4
sS'0 4577.2667'
p4997
I144
sS'0 4074.4800'
p4998
I384
sS'0 4209.5556'
p4999
I384
sS'0 5089.2000'
p5000
I64
sS'0 4103.8489'
p5001
I384
sS'0 8859.4756'
p5002
I4
sS'10107.7333'
p5003
I4
sS'0 4177.6756'
p5004
I384
sS'10003.4667'
p5005
I24
sS'0 4179.6756'
p5006
I384
sS'0 9324.4222'
p5007
I4
sS'0 2360.2800'
p5008
I1020
sS'0 4072.6933'
p5009
I384
sS'0 9356.4089'
p5010
I4
sS'0 2616.3511'
p5011
I1020
sS'0 9357.5511'
p5012
I4
sS'0 4104.3467'
p5013
I384
sS'0 4042.6800'
p5014
I384
sS'0 4682.6667'
p5015
I144
sS'0 4653.4000'
p5016
I144
sS'0 4161.5556'
p5017
I384
sS'0 9352.2756'
p5018
I4
sS'0 4204.5511'
p5019
I384
sS'0 3338.4844'
p5020
I1020
sS'0 5209.4000'
p5021
I64
sS'0 4043.6978'
p5022
I384
sS'0 9309.3511'
p5023
I4
sS'0 5184.2000'
p5024
I64
sS'0 9083.4178'
p5025
I4
sS'0 9353.2756'
p5026
I4
sS'0 4102.2800'
p5027
I384
sS'0 3020.2800'
p5028
I1020
sS'0 8392.3511'
p5029
I4
sS'0 4086.2756'
p5030
I384
sS'0 4163.2800'
p5031
I384
sS'0 3355.6267'
p5032
I1020
sS'0 3356.6311'
p5033
I1020
sS'0 8839.2089'
p5034
I4
sS'0 4104.8800'
p5035
I384
sS'0 9306.2756'
p5036
I4
sS'0 3321.3467'
p5037
I1020
sS'0 4179.8756'
p5038
I384
sS'0 5164.3333'
p5039
I64
sS'0 4056.4178'
p5040
I384
sS'0 4055.2756'
p5041
I384
sS'0 5206.2000'
p5042
I64
sS'0 4087.4133'
p5043
I384
sS'0 9309.5556'
p5044
I4
sS'0 4134.7600'
p5045
I384
sS'0 4713.7333'
p5046
I144
sS'0 5173.4667'
p5047
I64
sS'0 8873.4889'
p5048
I4
sS'0 9356.4889'
p5049
I4
sS'0 8857.3467'
p5050
I4
sS'0 8135.2089'
p5051
I4
sS'0 3277.4089'
p5052
I1020
sS'10110.2667'
p5053
I4
sS'0 4670.2667'
p5054
I144
sS'0 4178.2089'
p5055
I384
sS'0 4101.5556'
p5056
I384
sS'10009.8000'
p5057
I24
sS'0 5088.4667'
p5058
I64
sS'0 5147.2667'
p5059
I64
sS'0 4110.2089'
p5060
I384
sS'0 4134.7467'
p5061
I384
sS'0 4163.5556'
p5062
I384
sS'0 2376.2756'
p5063
I1020
sS'0 3307.2089'
p5064
I1020
sS'0 4721.4667'
p5065
I144
sS'0 4718.6667'
p5066
I144
sS'0 4206.4178'
p5067
I384
sS'0 8873.4089'
p5068
I4
sS'0 4207.6133'
p5069
I384
sS'10007.6000'
p5070
I24
sS'0 4191.3467'
p5071
I384
sS'0 4044.8978'
p5072
I384
sS'0 4223.6800'
p5073
I384
sS'0 4174.4800'
p5074
I384
sS'0 4703.2667'
p5075
I144
sS'0 5148.3333'
p5076
I64
sS'0 9339.4800'
p5077
I4
sS'0 5134.8667'
p5078
I64
sS'0 5194.2000'
p5079
I64
sS'0 5141.1333'
p5080
I64
sS'10102.3333'
p5081
I4
sS'0 4134.6800'
p5082
I384
sS'0 5119.8667'
p5083
I64
sS'0 4191.3422'
p5084
I384
sS'0 4074.7644'
p5085
I384
sS'0 4193.7422'
p5086
I384
sS'0 4114.2800'
p5087
I384
sS'0 5057.6667'
p5088
I64
sS'0 9356.6222'
p5089
I4
sS'0 2856.3511'
p5090
I1020
sS'0 4205.5556'
p5091
I384
sS'0 9098.4933'
p5092
I4
sS'0 4145.2800'
p5093
I384
sS'0 4163.8400'
p5094
I384
sS'0 4085.4178'
p5095
I384
sS'0 4089.9156'
p5096
I384
sS'0 4626.3333'
p5097
I144
sS'0 4163.4756'
p5098
I384
sS'0 5514.8667'
p5099
I1020
sS'0 3098.4089'
p5100
I1020
sS'0 4116.6800'
p5101
I384
sS'0 4218.4178'
p5102
I384
sS'0 4149.3511'
p5103
I384
sS'0 4205.3422'
p5104
I384
sS'0 4607.9333'
p5105
I144
sS'0 4044.5644'
p5106
I384
sS'0 4130.4756'
p5107
I384
sS'0 3116.5644'
p5108
I1020
sS'0 4058.8222'
p5109
I384
sS'0 4111.3422'
p5110
I384
sS'0 4221.5644'
p5111
I384
sS'0 4682.2000'
p5112
I144
sS'0 8824.2089'
p5113
I4
sS'0 4221.6844'
p5114
I384
sS'0 3098.4889'
p5115
I1020
sS'0 4099.3467'
p5116
I384
sS'0 2858.3511'
p5117
I1020
sS'0 5118.8000'
p5118
I64
sS'0 4148.8089'
p5119
I384
sS'0 9336.3467'
p5120
I4
sS'0 4146.7022'
p5121
I384
sS'0 4070.6222'
p5122
I384
sS'0 3356.5422'
p5123
I1020
sS'0 4118.6844'
p5124
I384
sS'0 8361.3467'
p5125
I4
sS'0 4659.5333'
p5126
I144
sS'0 4104.7022'
p5127
I384
sS'0 4685.6667'
p5128
I144
sS'10005.9333'
p5129
I24
sS'0 2586.3422'
p5130
I1020
sS'0 4162.3422'
p5131
I384
sS'0 9321.3511'
p5132
I4
sS'0 4159.4933'
p5133
I384
sS'0 9115.4222'
p5134
I4
sS'0 3115.2089'
p5135
I1020
sS'0 4134.9156'
p5136
I384
sS'0 4609.8667'
p5137
I144
sS'0 8616.3467'
p5138
I4
sS'0 9115.5644'
p5139
I4
sS'0 4102.7511'
p5140
I384
sS'0 4100.2800'
p5141
I384
sS'0 4191.6889'
p5142
I384
sS'0 4056.6844'
p5143
I384
sS'0 4134.8400'
p5144
I384
sS'0 9020.2756'
p5145
I4
sS'0 4189.5511'
p5146
I384
sS'0 9114.4178'
p5147
I4
sS'0 4054.5556'
p5148
I384
sS'0 4594.4667'
p5149
I144
sS'0 4119.7778'
p5150
I384
sS'0 9325.6222'
p5151
I4
sS'0 8616.2756'
p5152
I4
sS'0 2586.2089'
p5153
I1020
sS'0 4155.2756'
p5154
I384
sS'0 4133.7644'
p5155
I384
sS'0 4577.7333'
p5156
I144
sS'0 4146.4222'
p5157
I384
sS'0 4142.3422'
p5158
I384
sS'0 4672.4000'
p5159
I144
sS'10112.4000'
p5160
I4
sS'0 5146.3333'
p5161
I64
sS'0 4098.2089'
p5162
I384
sS'0 3084.4178'
p5163
I1020
sS'0 3098.3467'
p5164
I1020
sS'0 5134.2000'
p5165
I64
sS'0 4118.7467'
p5166
I384
sS'0 5190.3333'
p5167
I64
sS'0 5110.2667'
p5168
I64
sS'0 9321.2756'
p5169
I4
sS'0 4133.7733'
p5170
I384
sS'0 8632.2089'
p5171
I4
sS'0 8827.3467'
p5172
I4
sS'0 3306.3422'
p5173
I1020
sS'0 4083.4756'
p5174
I384
sS'0 4579.8667'
p5175
I144
sS'0 4044.7644'
p5176
I384
sS'0 5117.3333'
p5177
I64
sS'0 4104.7422'
p5178
I384
sS'0 4149.7556'
p5179
I384
sS'0 8843.4089'
p5180
I4
sS'0 4189.4133'
p5181
I384
sS'0 4083.2756'
p5182
I384
sS'0 3339.4089'
p5183
I1020
sS'0 4055.6222'
p5184
I384
sS'0 5178.3333'
p5185
I64
sS'0 4164.4222'
p5186
I384
sS'0 4689.8667'
p5187
I144
sS'0 4191.6089'
p5188
I384
sS'0 4058.6356'
p5189
I384
sS'0 4716.2000'
p5190
I144
sS'0 4059.5600'
p5191
I384
sS'0 4611.2000'
p5192
I144
sS'0 4179.4133'
p5193
I384
sS'0 2875.5600'
p5194
I1020
sS'0 8826.2089'
p5195
I4
sS'0 4131.6889'
p5196
I384
sS'0 2633.2800'
p5197
I1020
sS'0 5104.7333'
p5198
I64
sS'0 9083.3422'
p5199
I4
sS'0 3325.4178'
p5200
I1020
sS'0 4073.6222'
p5201
I384
sS'0 4173.3467'
p5202
I384
sS'0 4055.6089'
p5203
I384
sS'0 4088.8400'
p5204
I384
sS'0 4207.7067'
p5205
I384
sS'0 5186.3333'
p5206
I64
sS'0 4209.7778'
p5207
I384
sS'0 4223.4756'
p5208
I384
sS'0 8859.4178'
p5209
I4
sS'0 3309.5467'
p5210
I1020
sS'0 3355.5511'
p5211
I1020
sS'0 4700.4667'
p5212
I144
sS'0 2857.4222'
p5213
I1020
sS'0 3308.4933'
p5214
I1020
sS'10110.7333'
p5215
I4
sS'0 9355.6133'
p5216
I4
sS'0 8871.3422'
p5217
I4
sS'0 5194.6000'
p5218
I64
sS'0 4209.7511'
p5219
I384
sS'0 2875.3467'
p5220
I1020
sS'0 3100.5556'
p5221
I1020
sS'0 4178.6978'
p5222
I384
sS'0 2602.2800'
p5223
I1020
sS'0 2842.4133'
p5224
I1020
sS'0 4714.8667'
p5225
I144
sS'0 4162.7689'
p5226
I384
sS'0 9116.3422'
p5227
I4
sS'10012.4667'
p5228
I24
sS'0 4163.3511'
p5229
I384
sS'0 4179.5422'
p5230
I384
sS'0 4191.7022'
p5231
I384
sS'0 4088.7067'
p5232
I384
sS'10007.2000'
p5233
I24
sS'0 4086.4178'
p5234
I384
sS'0 4117.4222'
p5235
I384
sS'0 4134.8978'
p5236
I384
sS'0 4191.4222'
p5237
I384
sS'0 8874.2756'
p5238
I4
sS'0 4641.1333'
p5239
I144
sS'0 4640.5333'
p5240
I144
sS'0 4066.3422'
p5241
I384
sS'0 8859.5422'
p5242
I4
sS'0 3113.4889'
p5243
I1020
sS'0 9351.2800'
p5244
I4
sS'0 4058.4222'
p5245
I384
sS'10005.6000'
p5246
I24
sS'0 4041.4889'
p5247
I384
sS'0 4215.2089'
p5248
I384
sS'0 3339.3467'
p5249
I1020
sS'0 3309.5644'
p5250
I1020
sS'0 4659.1333'
p5251
I144
sS'0 4220.5600'
p5252
I384
sS'0 4146.3467'
p5253
I384
sS'0 4193.4222'
p5254
I384
sS'0 4118.4178'
p5255
I384
sS'0 4209.6800'
p5256
I384
sS'0 3113.4089'
p5257
I1020
sS'0 5116.4000'
p5258
I64
sS'0 3050.2756'
p5259
I1020
sS'10013.1333'
p5260
I24
sS'0 4038.4178'
p5261
I384
sS'0 8874.5467'
p5262
I4
sS'0 5133.4667'
p5263
I64
sS'0 4688.4667'
p5264
I144
sS'0 8392.4089'
p5265
I4
sS'0 4088.2800'
p5266
I384
sS'0 4627.3333'
p5267
I144
sS'0 3260.2756'
p5268
I1020
sS'0 4074.4756'
p5269
I384
sS'0 4623.6000'
p5270
I144
sS'0 2361.2089'
p5271
I1020
sS'0 8874.4756'
p5272
I4
sS'0 9356.3511'
p5273
I4
sS'0 5221.6000'
p5274
I64
sS'0 4116.3511'
p5275
I384
sS'0 2615.2089'
p5276
I1020
sS'0 3099.4133'
p5277
I1020
sS'0 4688.4000'
p5278
I144
sS'0 4201.2800'
p5279
I384
sS'0 3099.5511'
p5280
I1020
sS'0 4117.6089'
p5281
I384
sS'0 4607.2667'
p5282
I144
sS'0 2617.3422'
p5283
I1020
sS'0 4178.3511'
p5284
I384
sS'0 4088.5467'
p5285
I384
sS'0 5086.4667'
p5286
I64
sS'0 9110.2756'
p5287
I4
sS'0 4072.7600'
p5288
I384
sS'0 4188.4844'
p5289
I384
sS'0 4194.5644'
p5290
I384
sS'0 4204.4933'
p5291
I384
sS'10006.4667'
p5292
I24
sS'0 4193.6889'
p5293
I384
sS'0 4178.5511'
p5294
I384
sS'0 9036.3511'
p5295
I4
sS'0 5117.7333'
p5296
I64
sS'0 4673.2667'
p5297
I144
sS'10113.2667'
p5298
I4
sS'0 4043.7644'
p5299
I384
sS'0 4042.4933'
p5300
I384
sS'10011.4000'
p5301
I24
sS'0 2858.4844'
p5302
I1020
sS'0 5068.3333'
p5303
I64
sS'0 4073.2089'
p5304
I384
sS'0 4175.4889'
p5305
I384
sS'0 4088.5600'
p5306
I384
sS'0 4684.1333'
p5307
I144
sS'0 4637.6667'
p5308
I144
sS'0 5193.5333'
p5309
I64
sS'10004.4667'
p5310
I24
sS'0 4131.6267'
p5311
I384
sS'0 2360.2756'
p5312
I1020
sS'0 9100.2756'
p5313
I4
sS'0 4117.7689'
p5314
I384
sS'0 4073.8089'
p5315
I384
sS'0 3067.4133'
p5316
I1020
sS'0 4164.8222'
p5317
I384
sS'0 4177.4178'
p5318
I384
sS'0 3341.6311'
p5319
I1020
sS'0 4087.7689'
p5320
I384
sS'0 5040.2000'
p5321
I64
sS'0 5057.4667'
p5322
I64
sS'0 4042.5556'
p5323
I384
sS'0 4659.8000'
p5324
I144
sS'0 9356.6933'
p5325
I4
sS'0 4072.4800'
p5326
I384
sS'0 4043.5467'
p5327
I384
sS'0 4117.6889'
p5328
I384
sS'0 4712.5333'
p5329
I144
sS'0 4117.7067'
p5330
I384
sS'0 5217.1333'
p5331
I64
sS'0 4116.5556'
p5332
I384
sS'0 4132.4089'
p5333
I384
sS'10010.7333'
p5334
I24
sS'0 3338.4133'
p5335
I1020
sS'0 2632.3422'
p5336
I1020
sS'0 4073.8356'
p5337
I384
sS'0 4059.8178'
p5338
I384
sS'0 4040.2800'
p5339
I384
sS'0 4043.5644'
p5340
I384
sS'0 4190.6267'
p5341
I384
sS'0 5081.1333'
p5342
I64
sS'0 4175.6222'
p5343
I384
sS'0 4104.8756'
p5344
I384
sS'0 3353.4089'
p5345
I1020
sS'0 5103.1333'
p5346
I64
sS'0 4194.8844'
p5347
I384
sS'0 3036.2800'
p5348
I1020
sS'0 4119.2089'
p5349
I384
sS'0 4654.5333'
p5350
I144
sS'0 2151.2800'
p5351
I1020
sS'0 4653.1333'
p5352
I144
sS'0 4193.5511'
p5353
I384
sS'0 4179.9067'
p5354
I384
sS'0 3116.4133'
p5355
I1020
sS'0 5164.2000'
p5356
I64
sS'0 5158.3333'
p5357
I64
sS'0 4104.5556'
p5358
I384
sS'0 8391.3511'
p5359
I4
sS'0 4158.3511'
p5360
I384
sS'0 4056.5644'
p5361
I384
sS'0 4055.3422'
p5362
I384
sS'0 2826.3467'
p5363
I1020
sS'0 8857.2756'
p5364
I4
sS'0 4667.2000'
p5365
I144
sS'10107.2000'
p5366
I4
sS'0 4089.4844'
p5367
I384
sS'0 2570.2756'
p5368
I1020
sS'0 4641.9333'
p5369
I144
sS'0 4040.5556'
p5370
I384
sS'0 4134.6756'
p5371
I384
sS'0 4101.4800'
p5372
I384
sS'0 4163.4222'
p5373
I384
sS'0 5189.5333'
p5374
I64
sS'0 4119.6356'
p5375
I384
sS'0 9293.2089'
p5376
I4
sS'0 3356.6978'
p5377
I1020
sS'0 3354.4933'
p5378
I1020
sS'0 9293.3422'
p5379
I4
sS'10009.5333'
p5380
I24
sS'0 9050.2756'
p5381
I4
sS'0 3308.4844'
p5382
I1020
sS'0 4071.6800'
p5383
I384
sS'0 9111.3467'
p5384
I4
sS'0 2859.5644'
p5385
I1020
sS'0 4088.6178'
p5386
I384
sS'0 2859.3422'
p5387
I1020
sS'0 4074.9111'
p5388
I384
sS'0 4218.4889'
p5389
I384
sS'0 3308.4133'
p5390
I1020
sS'0 2634.2756'
p5391
I1020
sS'10013.5333'
p5392
I24
sS'0 8842.3422'
p5393
I4
sS'0 2842.3467'
p5394
I1020
sS'0 4687.4000'
p5395
I144
sS'0 4088.8267'
p5396
I384
sS'0 4162.5422'
p5397
I384
sS'0 3357.7422'
p5398
I1020
sS'0 4163.7422'
p5399
I384
sS'0 5140.2667'
p5400
I64
sS'0 9338.4089'
p5401
I4
sS'0 5055.6000'
p5402
I64
sS'0 2874.3422'
p5403
I1020
sS'0 5088.4000'
p5404
I64
sS'0 4626.9333'
p5405
I144
sS'0 2811.3422'
p5406
I1020
sS'0 5097.1333'
p5407
I64
sS'0 4056.4933'
p5408
I384
sS'0 4547.8667'
p5409
I144
sS'0 9325.2756'
p5410
I4
sS'0 2811.2089'
p5411
I1020
sS'0 4189.2089'
p5412
I384
sS'0 5056.4667'
p5413
I64
sS'0 4203.2089'
p5414
I384
sS'0 8631.2756'
p5415
I4
sS'0 4175.3467'
p5416
I384
sS'0 4044.8356'
p5417
I384
sS'0 9324.5422'
p5418
I4
sS'0 4179.4844'
p5419
I384
sS'0 8857.4178'
p5420
I4
sS'0 4085.5467'
p5421
I384
sS'0 4119.7022'
p5422
I384
sS'0 8360.2756'
p5423
I4
sS'0 4223.7422'
p5424
I384
sS'0 9066.2800'
p5425
I4
sS'0 4098.4756'
p5426
I384
sS'0 8393.2800'
p5427
I4
sS'0 2377.3511'
p5428
I1020
sS'0 3356.3511'
p5429
I1020
sS'0 4102.6756'
p5430
I384
sS'0 5172.4000'
p5431
I64
sS'0 4147.7467'
p5432
I384
sS'0 3323.2089'
p5433
I1020
sS'0 4654.8000'
p5434
I144
sS'0 8361.2756'
p5435
I4
sS'0 5054.5333'
p5436
I64
sS'0 2827.4133'
p5437
I1020
sS'0 4205.4933'
p5438
I384
sS'0 4222.7733'
p5439
I384
sS'0 8875.2800'
p5440
I4
sS'0 9355.3511'
p5441
I4
sS'0 4148.4800'
p5442
I384
sS'0 4609.4000'
p5443
I144
sS'0 9098.4178'
p5444
I4
sS'0 4147.7600'
p5445
I384
sS'0 4164.3467'
p5446
I384
sS'0 5039.4000'
p5447
I64
sS'0 3292.3422'
p5448
I1020
sS'0 2633.4133'
p5449
I1020
sS'0 5036.2667'
p5450
I64
sS'0 5171.1333'
p5451
I64
sS'0 9337.4133'
p5452
I4
sS'0 4119.4222'
p5453
I384
sS'0 4050.2756'
p5454
I384
sS'0 4562.4000'
p5455
I144
sS'0 4191.6756'
p5456
I384
sS'0 4098.4800'
p5457
I384
sS'0 4069.4222'
p5458
I384
sS'0 4622.4667'
p5459
I144
sS'0 8873.2800'
p5460
I4
sS'0 9337.2756'
p5461
I4
sS'0 5100.6000'
p5462
I64
sS'0 4143.4933'
p5463
I384
sS'0 5146.2000'
p5464
I64
sS'0 9100.5644'
p5465
I4
sS'0 9307.3467'
p5466
I4
sS'0 4685.8667'
p5467
I144
sS'0 3355.2089'
p5468
I1020
sS'0 4104.6800'
p5469
I384
sS'0 8875.5556'
p5470
I4
sS'0 4157.4089'
p5471
I384
sS'0 4159.2089'
p5472
I384
sS'0 5082.4000'
p5473
I64
sS'0 4133.8133'
p5474
I384
sS'0 8827.4133'
p5475
I4
sS'0 4059.4756'
p5476
I384
sS'0 5186.2000'
p5477
I64
sS'0 9323.3511'
p5478
I4
sS'0 5073.6667'
p5479
I64
sS'0 5203.2000'
p5480
I64
sS'0 5059.4000'
p5481
I64
sS'0 5161.1333'
p5482
I64
sS'0 5164.6000'
p5483
I64
sS'0 4609.8000'
p5484
I144
sS'0 4622.8667'
p5485
I144
sS'0 4205.4089'
p5486
I384
sS'0 4057.7022'
p5487
I384
sS'0 4179.9022'
p5488
I384
sS'0 9354.4844'
p5489
I4
sS'0 8602.3467'
p5490
I4
sS'0 4057.6889'
p5491
I384
sS'0 9355.4889'
p5492
I4
sS'0 4041.6889'
p5493
I384
sS'0 4222.5600'
p5494
I384
sS'0 4115.2756'
p5495
I384
sS'0 9289.2089'
p5496
I4
sS'0 9341.5422'
p5497
I4
sS'0 4690.6000'
p5498
I144
sS'0 5053.3333'
p5499
I64
sS'0 3067.2089'
p5500
I1020
sS'0 4190.3422'
p5501
I384
sS'0 4055.5556'
p5502
I384
sS'0 2601.2756'
p5503
I1020
sS'0 8827.3422'
p5504
I4
sS'0 8875.4756'
p5505
I4
sS'0 4140.2756'
p5506
I384
sS'0 3111.3422'
p5507
I1020
sS'0 4222.5467'
p5508
I384
sS'0 4057.6089'
p5509
I384
sS'0 9113.3467'
p5510
I4
sS'0 9051.2800'
p5511
I4
sS'0 9354.5467'
p5512
I4
sS'0 2617.4222'
p5513
I1020
sS'0 4164.8844'
p5514
I384
sS'0 2584.2089'
p5515
I1020
sS'0 4643.4000'
p5516
I144
sS'10010.2000'
p5517
I24
sS'0 5148.2667'
p5518
I64
sS'0 4142.4178'
p5519
I384
sS'0 4655.8667'
p5520
I144
sS'0 9356.2756'
p5521
I4
sS'10110.4667'
p5522
I4
sS'0 4670.4667'
p5523
I144
sS'0 5087.6667'
p5524
I64
sS'0 4654.8667'
p5525
I144
sS'0 4038.4800'
p5526
I384
sS'0 4044.8489'
p5527
I384
sS'0 4682.4667'
p5528
I144
sS'0 5059.8000'
p5529
I64
sS'0 4158.4133'
p5530
I384
sS'0 5059.3333'
p5531
I64
sS'0 2810.2800'
p5532
I1020
sS'0 4173.4133'
p5533
I384
sS'0 3325.5467'
p5534
I1020
sS'0 9354.5644'
p5535
I4
sS'0 3100.4222'
p5536
I1020
sS'0 2873.2800'
p5537
I1020
sS'0 3116.4933'
p5538
I1020
sS'10012.7333'
p5539
I24
sS'0 4040.3511'
p5540
I384
sS'0 4103.6978'
p5541
I384
sS'0 4691.5333'
p5542
I144
sS'0 5087.6000'
p5543
I64
sS'0 4202.3422'
p5544
I384
sS'0 2843.4933'
p5545
I1020
sS'0 4087.6356'
p5546
I384
sS'0 3325.4756'
p5547
I1020
sS'0 4691.9333'
p5548
I144
sS'0 4118.2800'
p5549
I384
sS'0 4134.8444'
p5550
I384
sS'0 4140.2800'
p5551
I384
sS'0 9115.2800'
p5552
I4
sS'0 8874.3422'
p5553
I4
sS'0 4059.2756'
p5554
I384
sS'0 4205.4889'
p5555
I384
sS'10002.6000'
p5556
I24
sS'0 8391.2800'
p5557
I4
sS'0 4172.4089'
p5558
I384
sS'0 4202.4178'
p5559
I384
sS'0 8136.2089'
p5560
I4
sS'0 4069.3467'
p5561
I384
sS'0 3260.2800'
p5562
I1020
sS'0 9357.5556'
p5563
I4
sS'0 4072.6978'
p5564
I384
sS'0 9112.2089'
p5565
I4
sS'0 9340.5422'
p5566
I4
sS'0 4172.4222'
p5567
I384
sS'0 9309.4178'
p5568
I4
sS'0 8584.2089'
p5569
I4
sS'0 4610.5333'
p5570
I144
sS'0 3356.6178'
p5571
I1020
sS'0 3338.4800'
p5572
I1020
sS'0 5115.4000'
p5573
I64
sS'0 4089.6089'
p5574
I384
sS'0 5177.1333'
p5575
I64
sS'0 4132.6311'
p5576
I384
sS'0 4698.3333'
p5577
I144
sS'0 4684.9333'
p5578
I144
sS'0 2873.3511'
p5579
I1020
sS'0 4089.7689'
p5580
I384
sS'0 4103.6756'
p5581
I384
sS'0 4101.5467'
p5582
I384
sS'0 8569.2089'
p5583
I4
sS'0 3355.6222'
p5584
I1020
sS'0 3356.6356'
p5585
I1020
sS'0 4104.2800'
p5586
I384
sS'0 4593.3333'
p5587
I144
sS'0 2633.2756'
p5588
I1020
sS'0 4179.6356'
p5589
I384
sS'0 4686.6667'
p5590
I144
sS'0 3321.3422'
p5591
I1020
sS'0 4129.4133'
p5592
I384
sS'0 8151.2756'
p5593
I4
sS'0 8602.4178'
p5594
I4
sS'0 4127.4222'
p5595
I384
sS'0 9357.4756'
p5596
I4
sS'0 4134.7644'
p5597
I384
sS'0 4086.4933'
p5598
I384
sS'0 8872.4222'
p5599
I4
sS'0 8857.3422'
p5600
I4
sS'0 8586.2089'
p5601
I4
sS'0 9356.4222'
p5602
I4
sS'0 9353.4933'
p5603
I4
sS'10109.3333'
p5604
I4
sS'0 2152.2756'
p5605
I1020
sS'0 4221.4222'
p5606
I384
sS'0 7910.2800'
p5607
I4
sS'0 2391.2800'
p5608
I1020
sS'0 4674.4000'
p5609
I144
sS'10114.4000'
p5610
I4
sS'0 4100.6222'
p5611
I384
sS'0 4119.8400'
p5612
I384
sS'0 5223.2667'
p5613
I64
sS'0 4131.4089'
p5614
I384
sS'0 4657.9333'
p5615
I144
sS'0 3321.2089'
p5616
I1020
sS'0 9325.2800'
p5617
I4
sS'0 4113.2089'
p5618
I384
sS'0 4074.6267'
p5619
I384
sS'0 3116.6133'
p5620
I1020
sS'0 4104.9067'
p5621
I384
sS'0 4223.6844'
p5622
I384
sS'0 2859.4222'
p5623
I1020
sS'0 4174.4844'
p5624
I384
sS'0 4578.8000'
p5625
I144
sS'0 4625.4000'
p5626
I144
sS'0 9100.3511'
p5627
I4
sS'0 9112.4133'
p5628
I4
sS'0 4656.9333'
p5629
I144
sS'0 2779.2089'
p5630
I1020
sS'0 4712.4000'
p5631
I144
sS'0 9115.5600'
p5632
I4
sS'0 4072.7022'
p5633
I384
sS'0 9356.6267'
p5634
I4
sS'0 5217.2667'
p5635
I64
sS'0 4611.9333'
p5636
I144
sS'0 9324.2089'
p5637
I4
sS'0 4043.6222'
p5638
I384
sS'0 3049.2089'
p5639
I1020
sS'0 4658.9333'
p5640
I144
sS'0 8875.3511'
p5641
I4
sS'0 2633.4933'
p5642
I1020
sS'10105.4000'
p5643
I4
sS'0 5102.7333'
p5644
I64
sS'0 3277.4222'
p5645
I1020
sS'0 9277.4222'
p5646
I4
sS'0 4174.5467'
p5647
I384
sS'0 4200.2089'
p5648
I384
sS'0 4220.6178'
p5649
I384
sS'0 5189.2667'
p5650
I64
sS'0 4148.6889'
p5651
I384
sS'0 5103.2667'
p5652
I64
sS'0 4059.8844'
p5653
I384
sS'0 4161.2089'
p5654
I384
sS'0 4044.5600'
p5655
I384
sS'0 4186.3511'
p5656
I384
sS'0 3116.5600'
p5657
I1020
sS'0 4044.3467'
p5658
I384
sS'0 4111.3467'
p5659
I384
sS'0 4074.7600'
p5660
I384
sS'0 4594.6667'
p5661
I144
sS'0 4039.4933'
p5662
I384
sS'0 3356.4844'
p5663
I1020
sS'0 8601.2089'
p5664
I4
sS'0 4084.5600'
p5665
I384
sS'0 4041.6222'
p5666
I384
sS'0 4218.2756'
p5667
I384
sS'0 3323.4133'
p5668
I1020
sS'10012.3333'
p5669
I24
sS'0 4216.3422'
p5670
I384
sS'0 3356.5467'
p5671
I1020
sS'0 4070.6267'
p5672
I384
sS'0 4700.4000'
p5673
I144
sS'0 4071.6756'
p5674
I384
sS'0 4040.4222'
p5675
I384
sS'0 4177.2089'
p5676
I384
sS'0 4044.2800'
p5677
I384
sS'0 5140.1333'
p5678
I64
sS'0 5095.2667'
p5679
I64
sS'0 4162.3467'
p5680
I384
sS'0 9338.4756'
p5681
I4
sS'0 2600.2800'
p5682
I1020
sS'0 4188.3511'
p5683
I384
sS'0 4700.8000'
p5684
I144
sS'0 4691.6000'
p5685
I144
sS'0 2873.4178'
p5686
I1020
sS'10002.2000'
p5687
I24
sS'0 4070.6089'
p5688
I384
sS'0 8616.3422'
p5689
I4
sS'0 3276.3511'
p5690
I1020
sS'0 9307.2800'
p5691
I4
sS'0 4073.7600'
p5692
I384
sS'0 9322.3422'
p5693
I4
sS'0 4207.5467'
p5694
I384
sS'0 4044.8400'
p5695
I384
sS'0 9111.2756'
p5696
I4
sS'0 8634.2800'
p5697
I4
sS'0 3084.4756'
p5698
I1020
sS'0 5138.1333'
p5699
I64
sS'0 3339.5644'
p5700
I1020
sS'0 4145.5556'
p5701
I384
sS'0 3353.4844'
p5702
I1020
sS'0 9325.6267'
p5703
I4
sS'0 3308.3467'
p5704
I1020
sS'0 4698.7333'
p5705
I144
sS'0 8393.2756'
p5706
I4
sS'0 2842.2756'
p5707
I1020
sS'0 4162.6178'
p5708
I384
sS'0 4118.6800'
p5709
I384
sS'0 4147.5600'
p5710
I384
sS'0 4146.4889'
p5711
I384
sS'0 4104.7067'
p5712
I384
sS'0 3116.2800'
p5713
I1020
sS'0 4132.2800'
p5714
I384
sS'0 5174.4667'
p5715
I64
sS'0 3084.4133'
p5716
I1020
sS'0 4159.4756'
p5717
I384
sS'0 8827.2800'
p5718
I4
sS'0 2600.2756'
p5719
I1020
sS'0 4626.8000'
p5720
I144
sS'0 4148.2089'
p5721
I384
sS'0 4690.4667'
p5722
I144
sS'0 9350.2800'
p5723
I4
sS'0 4146.4089'
p5724
I384
sS'0 4701.3333'
p5725
I144
sS'0 4130.6133'
p5726
I384
sS'0 3306.3467'
p5727
I1020
sS'0 3116.5511'
p5728
I1020
sS'0 4044.7600'
p5729
I384
sS'0 4146.3511'
p5730
I384
sS'0 2618.4133'
p5731
I1020
sS'0 9341.4178'
p5732
I4
sS'0 4656.1333'
p5733
I144
sS'0 4149.7511'
p5734
I384
sS'0 4579.6667'
p5735
I144
sS'0 9066.2756'
p5736
I4
sS'0 4722.3333'
p5737
I144
sS'0 4158.2756'
p5738
I384
sS'0 8631.3511'
p5739
I4
sS'0 4058.6311'
p5740
I384
sS'0 4059.5644'
p5741
I384
sS'0 4223.4178'
p5742
I384
sS'0 5191.4000'
p5743
I64
sS'10013.8000'
p5744
I24
sS'0 8618.2089'
p5745
I4
sS'0 4102.7067'
p5746
I384
sS'0 4073.6267'
p5747
I384
sS'0 5041.2667'
p5748
I64
sS'0 4608.2667'
p5749
I144
sS'0 9068.3467'
p5750
I4
sS'0 4702.5333'
p5751
I144
sS'0 4088.8444'
p5752
I384
sS'0 9293.4178'
p5753
I4
sS'0 9290.2756'
p5754
I4
sS'0 4690.9333'
p5755
I144
sS'0 4209.7733'
p5756
I384
sS'10212.7333'
p5757
I4
sS'0 4159.2756'
p5758
I384
sS'0 5174.4000'
p5759
I64
sS'0 9355.6178'
p5760
I4
sS'0 9352.4089'
p5761
I4
sS'0 4717.2000'
p5762
I144
sS'0 3309.4889'
p5763
I1020
sS'0 2875.3422'
p5764
I1020
sS'0 2633.3467'
p5765
I1020
sS'0 4179.4178'
p5766
I384
sS'0 5207.3333'
p5767
I64
sS'0 2875.5644'
p5768
I1020
sS'0 4134.8800'
p5769
I384
sS'0 4057.6311'
p5770
I384
sS'0 9293.4800'
p5771
I4
sS'0 3324.5600'
p5772
I1020
sS'0 2842.4178'
p5773
I1020
sS'0 3309.4089'
p5774
I1020
sS'0 5130.2667'
p5775
I64
sS'0 9116.3467'
p5776
I4
sS'0 9337.3422'
p5777
I4
sS'0 5099.4667'
p5778
I64
sS'0 4191.7067'
p5779
I384
sS'0 4194.7733'
p5780
I384
sS'0 4086.4133'
p5781
I384
sS'0 3309.5422'
p5782
I1020
sS'0 8875.4222'
p5783
I4
sS'0 4217.2089'
p5784
I384
sS'0 4625.8667'
p5785
I144
sS'0 8871.2800'
p5786
I4
sS'0 4161.6089'
p5787
I384
sS'0 9084.4933'
p5788
I4
sS'0 4042.7778'
p5789
I384
sS'0 4637.4667'
p5790
I144
sS'0 4655.4000'
p5791
I144
sS'0 3113.4844'
p5792
I1020
sS'0 4149.8178'
p5793
I384
sS'0 5161.2667'
p5794
I64
sS'0 4089.5511'
p5795
I384
sS'0 4115.5422'
p5796
I384
sS'0 4178.6933'
p5797
I384
sS'0 4717.5333'
p5798
I144
sS'0 8602.2756'
p5799
I4
sS'0 3308.2756'
p5800
I1020
sS'0 4118.4133'
p5801
I384
sS'0 4177.6089'
p5802
I384
sS'0 5202.2000'
p5803
I64
sS'0 4038.4133'
p5804
I384
sS'0 9068.4089'
p5805
I4
sS'0 4058.7689'
p5806
I384
sS'0 8874.5422'
p5807
I4
sS'0 2601.3422'
p5808
I1020
sS'0 5514.3333'
p5809
I1020
sS'0 4058.4889'
p5810
I384
sS'10014.6000'
p5811
I24
sS'0 4722.2000'
p5812
I144
sS'0 4222.4756'
p5813
I384
sS'0 4670.9333'
p5814
I144
sS'10110.9333'
p5815
I4
sS'0 4070.2089'
p5816
I384
sS'0 9068.4889'
p5817
I4
sS'0 5102.2667'
p5818
I64
sS'0 4675.2000'
p5819
I144
sS'0 5148.1333'
p5820
I64
sS'0 9245.2089'
p5821
I4
sS'0 9357.7511'
p5822
I4
sS'10113.9333'
p5823
I4
sS'0 4673.9333'
p5824
I144
sS'0 4220.5644'
p5825
I384
sS'0 4191.4089'
p5826
I384
sS'0 3099.4178'
p5827
I1020
sS'0 4146.3422'
p5828
I384
sS'0 8858.4933'
p5829
I4
sS'0 2617.3467'
p5830
I1020
sS'0 3115.6267'
p5831
I1020
sS'0 5059.4667'
p5832
I64
sS'0 4088.5422'
p5833
I384
sS'0 2874.5556'
p5834
I1020
sS'0 8840.2756'
p5835
I4
sS'0 4201.3511'
p5836
I384
sS'0 4072.7644'
p5837
I384
sS'0 4194.5600'
p5838
I384
sS'0 4179.8889'
p5839
I384
sS'10009.3333'
p5840
I24
sS'0 4191.4889'
p5841
I384
sS'0 3082.3422'
p5842
I1020
sS'10012.6000'
p5843
I24
sS'0 4179.8089'
p5844
I384
sS'0 3357.3511'
p5845
I1020
sS'0 9116.6889'
p5846
I4
sS'0 4162.7511'
p5847
I384
sS'0 5200.2000'
p5848
I64
sS'0 4087.6800'
p5849
I384
sS'0 9341.6844'
p5850
I4
sS'0 4131.6222'
p5851
I384
sS'0 4177.7022'
p5852
I384
sS'0 4622.3333'
p5853
I144
sS'0 9340.6267'
p5854
I4
sS'0 3099.5556'
p5855
I1020
sS'0 4179.8267'
p5856
I384
sS'0 9100.4089'
p5857
I4
sS'0 4116.5600'
p5858
I384
sS'0 4164.8267'
p5859
I384
sS'0 8872.3467'
p5860
I4
sS'0 3341.6356'
p5861
I1020
sS'0 9357.4222'
p5862
I4
sS'0 9084.2756'
p5863
I4
sS'0 5069.4000'
p5864
I64
sS'0 4042.5511'
p5865
I384
sS'0 9352.3467'
p5866
I4
sS'0 3308.2089'
p5867
I1020
sS'0 4089.8444'
p5868
I384
sS'0 4158.4800'
p5869
I384
sS'0 1895.2089'
p5870
I1020
sS'0 4043.7689'
p5871
I384
sS'0 4690.1333'
p5872
I144
sS'0 2858.4800'
p5873
I1020
sS'0 4068.4756'
p5874
I384
sS'0 8872.2756'
p5875
I4
sS'10003.8667'
p5876
I24
sS'0 8842.4089'
p5877
I4
sS'0 4116.5511'
p5878
I384
sS'10104.8000'
p5879
I4
sS'0 4164.8089'
p5880
I384
sS'0 4223.8356'
p5881
I384
sS'0 4721.8000'
p5882
I144
sS'0 2632.3467'
p5883
I1020
sS'0 3338.4178'
p5884
I1020
sS'0 9260.2756'
p5885
I4
sS'0 2873.4756'
p5886
I1020
sS'0 3067.4178'
p5887
I1020
sS'0 9116.6089'
p5888
I4
sS'0 4162.5644'
p5889
I384
sS'0 4085.2089'
p5890
I384
sS'0 9309.5467'
p5891
I4
sS'0 4193.7778'
p5892
I384
sS'0 4193.5556'
p5893
I384
sS'0 4593.8667'
p5894
I144
sS'0 4717.6000'
p5895
I144
sS'0 4218.3511'
p5896
I384
sS'0 8873.4222'
p5897
I4
sS'0 4163.8356'
p5898
I384
sS'0 2391.2756'
p5899
I1020
sS'0 5198.1333'
p5900
I64
sS'0 3291.3511'
p5901
I1020
sS'0 4058.7511'
p5902
I384
sS'0 4146.6978'
p5903
I384
sS'0 4056.5600'
p5904
I384
sS'0 4701.6000'
p5905
I144
sS'0 4117.7022'
p5906
I384
sS'10109.4667'
p5907
I4
sS'0 4669.4667'
p5908
I144
sS'0 9309.4756'
p5909
I4
sS'0 4223.6178'
p5910
I384
sS'0 4116.4133'
p5911
I384
sS'0 5220.1333'
p5912
I64
sS'0 4074.4089'
p5913
I384
sS'0 3275.2756'
p5914
I1020
sS'0 5125.2667'
p5915
I64
sS'0 4657.8000'
p5916
I144
sS'0 3004.2089'
p5917
I1020
sS'0 4177.5511'
p5918
I384
sS'0 4101.4844'
p5919
I384
sS'0 3035.2089'
p5920
I1020
sS'0 1909.2089'
p5921
I1020
sS'0 3309.3422'
p5922
I1020
sS'0 4074.8356'
p5923
I384
sS'0 4194.8800'
p5924
I384
sS'0 9320.2089'
p5925
I4
sS'0 5102.6000'
p5926
I64
sS'0 5056.6667'
p5927
I64
sS'0 4223.3467'
p5928
I384
sS'0 4164.4889'
p5929
I384
sS'0 4205.4133'
p5930
I384
sS'0 3356.6933'
p5931
I1020
sS'0 5070.6000'
p5932
I64
sS'0 9116.7022'
p5933
I4
sS'0 4147.3422'
p5934
I384
sS'0 3324.3511'
p5935
I1020
sS'0 5099.1333'
p5936
I64
sS'0 5194.3333'
p5937
I64
sS'10112.5333'
p5938
I4
sS'0 4118.8133'
p5939
I384
sS'0 9116.4222'
p5940
I4
sS'0 5206.3333'
p5941
I64
sS'0 2859.3467'
p5942
I1020
sS'0 9354.4178'
p5943
I4
sS'0 4163.4844'
p5944
I384
sS'0 8842.3467'
p5945
I4
sS'0 2842.3422'
p5946
I1020
sS'0 4577.6667'
p5947
I144
sS'0 4134.9200'
p5948
I384
sS'0 5072.1333'
p5949
I64
sS'0 5145.4000'
p5950
I64
sS'0 7895.2756'
p5951
I4
sS'0 4163.7467'
p5952
I384
sS'0 4044.8844'
p5953
I384
sS'0 4145.4933'
p5954
I384
sS'0 2874.3467'
p5955
I1020
sS'0 4118.8356'
p5956
I384
sS'0 4189.5644'
p5957
I384
sS'0 9114.4222'
p5958
I4
sS'0 4189.3422'
p5959
I384
sS'0 5057.3333'
p5960
I64
sS'0 4059.7511'
p5961
I384
sS'0 4133.6089'
p5962
I384
sS'0 5148.5333'
p5963
I64
sS'0 4155.2089'
p5964
I384
sS'0 8631.2800'
p5965
I4
sS'0 3100.2800'
p5966
I1020
sS'0 4719.8000'
p5967
I144
sS'0 3100.5511'
p5968
I1020
sS'0 4221.6356'
p5969
I384
sS'0 2859.5600'
p5970
I1020
sS'0 4059.6933'
p5971
I384
sS'0 3020.2089'
p5972
I1020
sS'0 4133.6889'
p5973
I384
sS'10207.4000'
p5974
I4
sS'0 5119.7333'
p5975
I64
sS'0 5088.7333'
p5976
I64
sS'0 4085.5422'
p5977
I384
sS'0 4119.7067'
p5978
I384
sS'0 9080.2089'
p5979
I4
sS'0 2839.2089'
p5980
I1020
sS'0 4164.7422'
p5981
I384
sS'10012.2000'
p5982
I24
sS'0 9338.3422'
p5983
I4
sS'0 4149.4089'
p5984
I384
sS'0 4686.1333'
p5985
I144
sS'0 2374.2089'
p5986
I1020
sS'0 5190.2667'
p5987
I64
sS'0 4041.3467'
p5988
I384
sS'0 2633.2089'
p5989
I1020
sS'0 4175.2089'
p5990
I384
sS'0 4218.3422'
p5991
I384
sS'0 2827.4178'
p5992
I1020
sS'0 4221.6978'
p5993
I384
sS'0 5172.1333'
p5994
I64
sS'0 4148.4844'
p5995
I384
sS'0 4149.8756'
p5996
I384
sS'0 4175.3422'
p5997
I384
sS'0 4149.4889'
p5998
I384
sS'0 4148.8178'
p5999
I384
sS'0 4056.6356'
p6000
I384
sS'0 4697.9333'
p6001
I144
sS'0 4119.7689'
p6002
I384
sS'0 4164.3422'
p6003
I384
sS'0 4622.6667'
p6004
I144
sS'0 5114.3333'
p6005
I64
sS'0 5214.1333'
p6006
I64
sS'0 4041.6178'
p6007
I384
sS'0 4038.3511'
p6008
I384
sS'0 1670.2756'
p6009
I1020
sS'0 4147.7422'
p6010
I384
sS'0 3355.3422'
p6011
I1020
sS'0 3357.4889'
p6012
I1020
sS'0 4059.8489'
p6013
I384
sS'0 4563.1333'
p6014
I144
sS'0 9307.3422'
p6015
I4
sS'0 4207.6756'
p6016
I384
sS'0 9099.4800'
p6017
I4
sS'0 4052.3511'
p6018
I384
sS'0 3084.5600'
p6019
I1020
sS'0 5173.1333'
p6020
I64
sS'0 4083.4844'
p6021
I384
sS'0 4067.2089'
p6022
I384
sS'0 4159.5422'
p6023
I384
sS'0 4104.6844'
p6024
I384
sS'0 4069.4089'
p6025
I384
sS'0 4119.4089'
p6026
I384
sS'0 4127.2800'
p6027
I384
sS'0 4162.4133'
p6028
I384
sS'0 3306.2756'
p6029
I1020
sS'0 4204.3467'
p6030
I384
sS'0 8827.4178'
p6031
I4
sS'0 3357.4089'
p6032
I1020
sS'0 4157.4222'
p6033
I384
sS'0 3052.3511'
p6034
I1020
sS'0 9341.5644'
p6035
I4
sS'0 9290.2089'
p6036
I4
sS'0 4159.5511'
p6037
I384
sS'0 5193.2667'
p6038
I64
sS'0 4705.7333'
p6039
I144
sS'0 4702.8000'
p6040
I144
sS'0 4057.7067'
p6041
I384
sS'0 3355.5644'
p6042
I1020
sS'0 4204.4889'
p6043
I384
sS'0 5205.2667'
p6044
I64
sS'0 4625.9333'
p6045
I144
sS'0 4222.5644'
p6046
I384
sS'0 3114.5600'
p6047
I1020
sS'0 4723.7333'
p6048
I144
sS'0 9341.5467'
p6049
I4
sS'0 4608.1333'
p6050
I144
sS'0 9114.5511'
p6051
I4
sS'0 4098.3467'
p6052
I384
sS'0 4702.6667'
p6053
I144
sS'0 8632.3511'
p6054
I4
sS'0 3100.5600'
p6055
I1020
sS'0 4223.5467'
p6056
I384
sS'0 8843.4133'
p6057
I4
sS'0 4086.5600'
p6058
I384
sS'0 9354.5422'
p6059
I4
sS'0 5074.3333'
p6060
I64
sS'0 9357.4889'
p6061
I4
sS'0 4142.4133'
p6062
I384
sS'0 9292.4089'
p6063
I4
sS'0 5194.7333'
p6064
I64
sS'0 8104.2089'
p6065
I4
sS'0 5073.4667'
p6066
I64
sS'0 9354.4889'
p6067
I4
sS'0 4715.2000'
p6068
I144
sS'0 3325.5422'
p6069
I1020
sS'0 4626.6000'
p6070
I144
sS'0 4721.8667'
p6071
I144
sS'10012.6667'
p6072
I24
sS'0 9322.4089'
p6073
I4
sS'0 9354.4089'
p6074
I4
sS'0 4043.3511'
p6075
I384
sS'0 3068.3511'
p6076
I1020
sS'0 8392.2089'
p6077
I4
sS'0 4179.6133'
p6078
I384
sS'0 4202.3467'
p6079
I384
sS'0 4100.4844'
p6080
I384
sS'0 4087.6311'
p6081
I384
sS'0 2152.3511'
p6082
I1020
sS'0 5057.7333'
p6083
I64
sS'0 4043.3467'
p6084
I384
sS'0 5042.4667'
p6085
I64
sS'0 2120.2756'
p6086
I1020
sS'0 4547.5333'
p6087
I144
sS'0 5040.4000'
p6088
I64
sS'0 4206.2089'
p6089
I384
sS'0 4703.6667'
p6090
I144
sS'0 4562.6000'
p6091
I144
sS'0 3084.2800'
p6092
I1020
sS'0 9356.5644'
p6093
I4
sS'0 4089.6844'
p6094
I384
sS'0 4158.4178'
p6095
I384
sS'0 4193.4933'
p6096
I384
sS'0 4115.3511'
p6097
I384
sS'0 4220.4133'
p6098
I384
sS'0 4042.6889'
p6099
I384
sS'0 4102.2089'
p6100
I384
sS'0 4717.2667'
p6101
I144
sS'0 4163.2089'
p6102
I384
sS'10108.4667'
p6103
I4
sS'0 9293.4933'
p6104
I4
sS'0 4118.3467'
p6105
I384
sS'0 5219.3333'
p6106
I64
sS'0 5116.5333'
p6107
I64
sS'0 2392.3511'
p6108
I1020
sS'0 3356.6133'
p6109
I1020
sS'0 4178.6756'
p6110
I384
sS'0 5511.6667'
p6111
I1020
sS'0 4134.8267'
p6112
I384
sS'0 4716.4667'
p6113
I144
sS'0 4156.2756'
p6114
I384
sS'10111.6000'
p6115
I4
sS'0 4671.6000'
p6116
I144
sS'0 4686.4667'
p6117
I144
sS'0 4191.6311'
p6118
I384
sS'0 5101.1333'
p6119
I64
sS'0 4667.8000'
p6120
I144
sS'10107.8000'
p6121
I4
sS'0 2616.2756'
p6122
I1020
sS'0 4145.5511'
p6123
I384
sS'10208.4667'
p6124
I4
sS'0 4043.7511'
p6125
I384
sS'0 8630.2800'
p6126
I4
sS'0 4175.5422'
p6127
I384
sS'0 4069.3422'
p6128
I384
sS'0 4563.5333'
p6129
I144
sS'0 5203.4667'
p6130
I64
sS'10003.6000'
p6131
I24
sS'0 8377.4178'
p6132
I4
sS'0 4653.7333'
p6133
I144
sS'0 5126.2667'
p6134
I64
sS'0 4129.4178'
p6135
I384
sS'10113.3333'
p6136
I4
sS'0 2617.2756'
p6137
I1020
sS'0 8873.4800'
p6138
I4
sS'0 4190.6133'
p6139
I384
sS'10009.2000'
p6140
I24
sS'0 3322.2756'
p6141
I1020
sS'0 9082.2089'
p6142
I4
sS'0 3116.6356'
p6143
I1020
sS'0 4095.2089'
p6144
I384
sS'0 5134.1333'
p6145
I64
sS'0 4119.8444'
p6146
I384
sS'0 4118.7778'
p6147
I384
sS'0 4690.2667'
p6148
I144
sS'0 3307.2800'
p6149
I1020
sS'0 4207.2089'
p6150
I384
sS'0 4087.7733'
p6151
I384
sS'0 4074.6222'
p6152
I384
sS'0 3340.3511'
p6153
I1020
sS'0 8602.4133'
p6154
I4
sS'0 4178.2800'
p6155
I384
sS'0 9116.6756'
p6156
I4
sS'0 3116.6178'
p6157
I1020
sS'0 4723.3333'
p6158
I144
sS'0 9309.3467'
p6159
I4
sS'0 4623.7333'
p6160
I144
sS'0 4177.6844'
p6161
I384
sS'0 4117.6933'
p6162
I384
sS'0 3052.4222'
p6163
I1020
sS'0 4134.6222'
p6164
I384
sS'0 9036.2089'
p6165
I4
sS'0 3065.2089'
p6166
I1020
sS'0 8617.3511'
p6167
I4
sS'0 9112.4178'
p6168
I4
sS'0 4223.7600'
p6169
I384
sS'0 4207.6311'
p6170
I384
sS'10011.5333'
p6171
I24
sS'10014.5333'
p6172
I24
sS'0 4059.8089'
p6173
I384
sS'10008.2000'
p6174
I24
sS'0 4072.7067'
p6175
I384
sS'0 4624.3333'
p6176
I144
sS'0 4051.3511'
p6177
I384
sS'0 4704.7333'
p6178
I144
sS'0 4189.4222'
p6179
I384
sS'0 4608.5333'
p6180
I144
sS'0 4163.8489'
p6181
I384
sS'0 4043.6267'
p6182
I384
sS'10007.6667'
p6183
I24
sS'0 5222.4000'
p6184
I64
sS'0 8633.3511'
p6185
I4
sS'0 5067.4000'
p6186
I64
sS'0 4069.4889'
p6187
I384
sS'0 5168.1333'
p6188
I64
sS'0 4174.5422'
p6189
I384
sS'0 4643.2000'
p6190
I144
sS'0 4193.7689'
p6191
I384
sS'0 4104.9022'
p6192
I384
sS'0 4223.4800'
p6193
I384
sS'0 4703.2000'
p6194
I144
sS'0 4220.6133'
p6195
I384
sS'0 4059.8889'
p6196
I384
sS'0 4642.9333'
p6197
I144
sS'0 4104.5467'
p6198
I384
sS'0 4095.2800'
p6199
I384
sS'0 4084.5422'
p6200
I384
sS'0 5222.4667'
p6201
I64
sS'0 4088.8133'
p6202
I384
sS'0 4194.8756'
p6203
I384
sS'0 5158.2000'
p6204
I64
sS'0 4104.4756'
p6205
I384
sS'0 3356.4800'
p6206
I1020
sS'0 5099.2667'
p6207
I64
sS'0 9052.4133'
p6208
I4
sS'0 4059.7689'
p6209
I384
sS'0 3323.4178'
p6210
I1020
sS'0 4164.6356'
p6211
I384
sS'0 5088.2000'
p6212
I64
sS'0 3290.2756'
p6213
I1020
sS'0 4129.2756'
p6214
I384
sS'0 9355.6222'
p6215
I4
sS'10108.8000'
p6216
I4
sS'0 4668.8000'
p6217
I144
sS'10106.6000'
p6218
I4
sS'0 4199.2089'
p6219
I384
sS'0 5056.5333'
p6220
I64
sS'0 5038.4667'
p6221
I64
sS'0 2825.2756'
p6222
I1020
sS'0 3084.5644'
p6223
I1020
sS'0 4072.4089'
p6224
I384
sS'0 2873.4133'
p6225
I1020
sS'0 4074.8800'
p6226
I384
sS'0 4658.8000'
p6227
I144
sS'0 2858.2756'
p6228
I1020
sS'0 4579.4667'
p6229
I144
sS'0 5069.3333'
p6230
I64
sS'0 4068.3422'
p6231
I384
sS'0 4118.6356'
p6232
I384
sS'0 4221.7022'
p6233
I384
sS'0 5164.2667'
p6234
I64
sS'0 3339.5600'
p6235
I1020
sS'0 2859.2756'
p6236
I1020
sS'0 4222.7067'
p6237
I384
sS'0 4040.4844'
p6238
I384
sS'0 2634.3467'
p6239
I1020
sS'0 3308.3422'
p6240
I1020
sS'10103.7333'
p6241
I4
sS'0 4162.2800'
p6242
I384
sS'0 4116.6222'
p6243
I384
sS'0 9355.5422'
p6244
I4
sS'0 8632.2800'
p6245
I4
sS'0 4039.4178'
p6246
I384
sS'0 4178.5600'
p6247
I384
sS'0 4162.6133'
p6248
I384
sS'0 4547.9333'
p6249
I144
sS'0 5157.2000'
p6250
I64
sS'0 5088.5333'
p6251
I64
sS'0 4100.3422'
p6252
I384
sS'0 5101.5333'
p6253
I64
sS'0 5119.6667'
p6254
I64
sS'0 4206.6978'
p6255
I384
sS'0 4116.7022'
p6256
I384
sS'0 4044.9067'
p6257
I384
sS'0 4053.4178'
p6258
I384
sS'0 4088.6089'
p6259
I384
sS'0 4130.6178'
p6260
I384
sS'0 4191.6800'
p6261
I384
sS'0 5148.4000'
p6262
I64
sS'0 4044.8444'
p6263
I384
sS'0 4624.9333'
p6264
I144
sS'0 4102.6089'
p6265
I384
sS'0 4073.7644'
p6266
I384
sS'10004.8667'
p6267
I24
sS'0 4207.5422'
p6268
I384
sS'0 3275.2089'
p6269
I1020
sS'0 9341.4133'
p6270
I4
sS'0 4085.6178'
p6271
I384
sS'0 8633.4756'
p6272
I4
sS'0 5119.6000'
p6273
I64
sS'0 3096.2800'
p6274
I1020
sS'0 4100.2089'
p6275
I384
sS'0 4131.2089'
p6276
I384
sS'0 4223.4133'
p6277
I384
sS'0 5073.5333'
p6278
I64
sS'0 3341.2089'
p6279
I1020
sS'0 5219.4667'
p6280
I64
sS'0 4102.7022'
p6281
I384
sS'0 4687.5333'
p6282
I144
sS'0 4041.4133'
p6283
I384
sS'0 9068.3422'
p6284
I4
sS'0 5052.4000'
p6285
I64
sS'0 4088.8489'
p6286
I384
sS'0 4148.7556'
p6287
I384
sS'0 2150.2756'
p6288
I1020
sS'0 4074.4133'
p6289
I384
sS'0 9308.3511'
p6290
I4
sS'0 4071.2089'
p6291
I384
sS'0 4714.8000'
p6292
I144
sS'0 3324.5422'
p6293
I1020
sS'0 4609.5333'
p6294
I144
sS'0 4697.8000'
p6295
I144
sS'0 9336.2800'
p6296
I4
sS'0 2875.4089'
p6297
I1020
sS'0 5039.5333'
p6298
I64
sS'0 4652.2667'
p6299
I144
sS'0 2633.3422'
p6300
I1020
sS'0 4640.4667'
p6301
I144
sS'0 4134.8844'
p6302
I384
sS'0 2634.4089'
p6303
I1020
sS'0 4059.4222'
p6304
I384
sS'0 3083.4933'
p6305
I1020
sS'0 3324.5644'
p6306
I1020
sS'0 4070.5644'
p6307
I384
sS'0 4624.7333'
p6308
I144
sS'0 9352.4222'
p6309
I4
sS'0 4217.3467'
p6310
I384
sS'0 2634.4889'
p6311
I1020
sS'0 4697.4667'
p6312
I144
sS'0 5194.8667'
p6313
I64
sS'0 2602.2089'
p6314
I1020
sS'0 4124.2089'
p6315
I384
sS'0 3340.4133'
p6316
I1020
sS'0 4089.4933'
p6317
I384
sS'0 4642.5333'
p6318
I144
sS'0 5162.2000'
p6319
I64
sS'0 4052.4222'
p6320
I384
sS'0 4563.8000'
p6321
I144
sS'0 4149.8133'
p6322
I384
sS'0 5193.1333'
p6323
I64
sS'0 4115.5467'
p6324
I384
sS'0 4625.6667'
p6325
I144
sS'0 4057.6356'
p6326
I384
sS'10008.8667'
p6327
I24
sS'10102.6667'
p6328
I4
sS'0 9338.3467'
p6329
I4
sS'0 5043.4000'
p6330
I64
sS'0 4689.2000'
p6331
I144
sS'0 4209.6889'
p6332
I384
sS'0 4690.7333'
p6333
I144
sS'0 5088.6000'
p6334
I64
sS'0 4562.5333'
p6335
I144
sS'0 8875.4844'
p6336
I4
sS'0 8826.3467'
p6337
I4
sS'0 2615.2800'
p6338
I1020
sS'0 4175.4178'
p6339
I384
sS'0 4156.3422'
p6340
I384
sS'0 2601.3467'
p6341
I1020
sS'0 4118.8400'
p6342
I384
sS'0 4042.7733'
p6343
I384
sS'0 5056.1333'
p6344
I64
sS'0 9068.4844'
p6345
I4
sS'0 4682.9333'
p6346
I144
sS'0 5169.1333'
p6347
I64
sS'0 7911.2800'
p6348
I4
sS'0 2390.2800'
p6349
I1020
sS'0 4704.3333'
p6350
I144
sS'0 4103.7022'
p6351
I384
sS'0 4102.5511'
p6352
I384
sS'0 4089.9111'
p6353
I384
sS'0 5115.6000'
p6354
I64
sS'0 2874.4933'
p6355
I1020
sS'0 3325.6178'
p6356
I1020
sS'0 4097.3467'
p6357
I384
sS'0 4671.8667'
p6358
I144
sS'0 4547.4667'
p6359
I144
sS'0 4082.4089'
p6360
I384
sS'0 4705.1333'
p6361
I144
sS'0 4193.6800'
p6362
I384
sS'0 4642.4000'
p6363
I144
sS'0 3082.3467'
p6364
I1020
sS'0 4164.8978'
p6365
I384
sS'0 4209.4222'
p6366
I384
sS'0 9322.2756'
p6367
I4
sS'0 2795.2756'
p6368
I1020
sS'0 9081.2756'
p6369
I4
sS'0 5215.1333'
p6370
I64
sS'0 8874.4133'
p6371
I4
sS'0 8615.2800'
p6372
I4
sS'0 4547.4000'
p6373
I144
sS'0 4087.6844'
p6374
I384
sS'10114.1333'
p6375
I4
sS'0 9341.6800'
p6376
I4
sS'0 5141.2667'
p6377
I64
sS'0 8630.2756'
p6378
I4
sS'0 4088.2089'
p6379
I384
sS'0 5205.5333'
p6380
I64
sS'0 9340.6222'
p6381
I4
sS'10003.3333'
p6382
I24
sS'0 2120.2800'
p6383
I1020
sS'0 3115.6222'
p6384
I1020
sS'0 8872.3422'
p6385
I4
sS'0 9349.2089'
p6386
I4
sS'10109.2667'
p6387
I4
sS'0 4178.6267'
p6388
I384
sS'0 9352.3422'
p6389
I4
sS'0 4131.6089'
p6390
I384
sS'0 4089.6133'
p6391
I384
sS'0 4089.8400'
p6392
I384
sS'0 5070.1333'
p6393
I64
sS'0 4158.4844'
p6394
I384
sS'0 4221.4933'
p6395
I384
sS'0 8616.2800'
p6396
I4
sS'0 4668.8667'
p6397
I144
sS'10108.8667'
p6398
I4
sS'0 4053.2756'
p6399
I384
sS'0 4113.4089'
p6400
I384
sS'0 4684.6000'
p6401
I144
sS'0 4223.8311'
p6402
I384
sS'0 3322.3422'
p6403
I1020
sS'0 4039.5644'
p6404
I384
sS'0 2151.2089'
p6405
I1020
sS'0 4686.7333'
p6406
I144
sS'0 9324.4178'
p6407
I4
sS'0 9100.5422'
p6408
I4
sS'0 3322.2089'
p6409
I1020
sS'0 3099.4889'
p6410
I1020
sS'0 9354.2800'
p6411
I4
sS'0 5085.5333'
p6412
I64
sS'0 9352.2089'
p6413
I4
sS'0 4179.8222'
p6414
I384
sS'0 4188.4800'
p6415
I384
sS'10014.4667'
p6416
I24
sS'0 9356.6756'
p6417
I4
sS'0 4163.8311'
p6418
I384
sS'0 9356.4933'
p6419
I4
sS'0 9353.4889'
p6420
I4
sS'10113.1333'
p6421
I4
sS'10113.2000'
p6422
I4
sS'0 4673.2000'
p6423
I144
sS'0 4058.7556'
p6424
I384
sS'0 9112.3467'
p6425
I4
sS'0 4147.4933'
p6426
I384
sS'0 4088.5644'
p6427
I384
sS'10006.2000'
p6428
I24
sS'0 4089.7511'
p6429
I384
sS'0 3036.2089'
p6430
I1020
sS'10011.2667'
p6431
I24
sS'0 4101.5422'
p6432
I384
sS'0 3116.5556'
p6433
I1020
sS'0 4177.5556'
p6434
I384
sS'0 9306.2800'
p6435
I4
sS'0 9353.4089'
p6436
I4
sS'0 4149.6933'
p6437
I384
sS'0 4718.1333'
p6438
I144
sS'0 2329.2089'
p6439
I1020
sS'0 4193.7733'
p6440
I384
sS'0 2873.2089'
p6441
I1020
sS'0 4074.8311'
p6442
I384
sS'0 4652.7333'
p6443
I144
sS'0 4161.2756'
p6444
I384
sS'0 3096.3511'
p6445
I1020
sS'0 5095.1333'
p6446
I64
sS'0 4071.6222'
p6447
I384
sS'0 3341.4933'
p6448
I1020
sS'0 4706.4000'
p6449
I144
sS'0 4131.4178'
p6450
I384
sS'0 4147.3467'
p6451
I384
sS'0 4674.5333'
p6452
I144
sS'10114.5333'
p6453
I4
sS'10111.5333'
p6454
I4
sS'0 4671.5333'
p6455
I144
sS'0 4163.4800'
p6456
I384
sS'0 9339.4933'
p6457
I4
sS'0 4624.2000'
p6458
I144
sS'0 9115.4133'
p6459
I4
sS'0 4608.4000'
p6460
I144
sS'0 4164.5644'
p6461
I384
sS'0 4044.8800'
p6462
I384
sS'0 3293.4844'
p6463
I1020
sS'0 5170.2000'
p6464
I64
sS'0 5221.3333'
p6465
I64
sS'0 4189.3467'
p6466
I384
sS'0 4164.7556'
p6467
I384
sS'0 2586.2800'
p6468
I1020
sS'0 4059.7556'
p6469
I384
sS'0 4129.2089'
p6470
I384
sS'0 9339.4222'
p6471
I4
sS'0 3307.4089'
p6472
I1020
sS'0 4059.6978'
p6473
I384
sS'0 2136.3511'
p6474
I1020
sS'0 9339.5511'
p6475
I4
sS'0 4146.6933'
p6476
I384
sS'0 4118.8178'
p6477
I384
sS'0 9098.4844'
p6478
I4
sS'0 9338.4800'
p6479
I4
sS'0 3322.4178'
p6480
I1020
sS'0 3337.3467'
p6481
I1020
sS'0 4659.4667'
p6482
I144
sS'0 4698.6667'
p6483
I144
sS'0 4595.8000'
p6484
I144
sS'0 4114.3511'
p6485
I384
sS'0 4205.2089'
p6486
I384
sS'0 9323.2800'
p6487
I4
sS'0 3341.4756'
p6488
I1020
sS'10102.2000'
p6489
I4
sS'0 4116.6756'
p6490
I384
sS'0 4218.3467'
p6491
I384
sS'0 4164.7467'
p6492
I384
sS'0 4209.8222'
p6493
I384
sS'0 4217.4222'
p6494
I384
sS'0 4579.5333'
p6495
I144
sS'0 3357.7556'
p6496
I1020
sS'0 5223.6667'
p6497
I64
sS'0 9116.4089'
p6498
I4
sS'0 4129.3422'
p6499
I384
sS'0 5203.3333'
p6500
I64
sS'0 4189.5600'
p6501
I384
sS'0 4547.8000'
p6502
I144
sS'0 4094.2089'
p6503
I384
sS'0 4141.2089'
p6504
I384
sS'0 4058.2756'
p6505
I384
sS'0 4162.4178'
p6506
I384
sS'0 5056.4000'
p6507
I64
sS'0 9116.4889'
p6508
I4
sS'0 2875.6311'
p6509
I1020
sS'0 8871.2756'
p6510
I4
sS'0 8390.2089'
p6511
I4
sS'0 4714.3333'
p6512
I144
sS'0 5220.6000'
p6513
I64
sS'0 4721.6667'
p6514
I144
sS'0 4056.6311'
p6515
I384
sS'0 5059.1333'
p6516
I64
sS'0 5069.2000'
p6517
I64
sS'0 4133.6844'
p6518
I384
sS'0 8633.4889'
p6519
I4
sS'0 3323.4933'
p6520
I1020
sS'0 9325.6356'
p6521
I4
sS'0 4073.6133'
p6522
I384
sS'0 4207.6178'
p6523
I384
sS'0 2811.3511'
p6524
I1020
sS'0 8618.4089'
p6525
I4
sS'0 4594.3333'
p6526
I144
sS'0 8601.3467'
p6527
I4
sS'0 3276.2089'
p6528
I1020
sS'0 4684.2000'
p6529
I144
sS'0 4159.2800'
p6530
I384
sS'0 5072.3333'
p6531
I64
sS'0 4041.6133'
p6532
I384
sS'0 3341.2756'
p6533
I1020
sS'0 5117.2667'
p6534
I64
sS'0 4087.7600'
p6535
I384
sS'0 2136.2089'
p6536
I1020
sS'0 8633.4089'
p6537
I4
sS'0 9099.4844'
p6538
I4
sS'0 4146.4133'
p6539
I384
sS'0 5088.2667'
p6540
I64
sS'0 4159.5467'
p6541
I384
sS'0 4178.8311'
p6542
I384
sS'0 4083.4800'
p6543
I384
sS'0 5101.2667'
p6544
I64
sS'0 4104.6889'
p6545
I384
sS'0 4147.7689'
p6546
I384
sS'0 4179.4222'
p6547
I384
sS'0 5089.4667'
p6548
I64
sS'0 4149.7022'
p6549
I384
sS'0 3114.4222'
p6550
I1020
sS'10002.3333'
p6551
I24
sS'0 4688.7333'
p6552
I144
sS'0 3355.2800'
p6553
I1020
sS'0 4191.6133'
p6554
I384
sS'0 5104.6667'
p6555
I64
sS'0 3336.2756'
p6556
I1020
sS'0 5085.2000'
p6557
I64
sS'10006.6000'
p6558
I24
sS'0 4074.2089'
p6559
I384
sS'0 3355.5600'
p6560
I1020
sS'0 9115.6089'
p6561
I4
sS'0 3355.3467'
p6562
I1020
sS'0 4102.7556'
p6563
I384
sS'0 5073.8000'
p6564
I64
sS'10004.2000'
p6565
I24
sS'0 4147.7022'
p6566
I384
sS'0 4146.5511'
p6567
I384
sS'0 4098.3422'
p6568
I384
sS'0 8375.2756'
p6569
I4
sS'0 4682.4000'
p6570
I144
sS'0 3100.5644'
p6571
I1020
sS'0 4223.5422'
p6572
I384
sS'0 4703.4667'
p6573
I144
sS'0 8843.4178'
p6574
I4
sS'0 4194.6800'
p6575
I384
sS'0 5164.5333'
p6576
I64
sS'0 4143.3511'
p6577
I384
sS'0 5083.2667'
p6578
I64
sS'0 5174.5333'
p6579
I64
sS'0 4044.6133'
p6580
I384
sS'0 4622.4000'
p6581
I144
sS'0 4055.4933'
p6582
I384
sS'0 8858.2089'
p6583
I4
sS'0 4222.4222'
p6584
I384
sS'0 4058.6933'
p6585
I384
sS'0 4164.9022'
p6586
I384
sS'0 4643.9333'
p6587
I144
sS'0 3324.4133'
p6588
I1020
sS'0 4624.6000'
p6589
I144
sS'0 9260.2089'
p6590
I4
sS'0 5042.2667'
p6591
I64
sS'0 4119.8933'
p6592
I384
sS'0 4102.6844'
p6593
I384
sS'0 9322.3467'
p6594
I4
sS'0 4100.4800'
p6595
I384
sS'0 4087.5600'
p6596
I384
sS'0 9325.4222'
p6597
I4
sS'0 2632.4089'
p6598
I1020
sS'0 4086.5644'
p6599
I384
sS'0 2810.2089'
p6600
I1020
sS'0 4073.4133'
p6601
I384
sS'0 9335.2756'
p6602
I4
sS'0 4043.6133'
p6603
I384
sS'0 4037.3511'
p6604
I384
sS'0 5188.3333'
p6605
I64
sS'0 4089.6800'
p6606
I384
sS'0 4147.5467'
p6607
I384
sS'0 4134.4756'
p6608
I384
sS'0 4719.2000'
p6609
I144
sS'0 2393.2756'
p6610
I1020
sS'0 4716.6667'
p6611
I144
sS'0 4705.9333'
p6612
I144
sS'0 9068.4178'
p6613
I4
sS'0 9065.2800'
p6614
I4
sS'0 4147.6844'
p6615
I384
sS'0 3099.3422'
p6616
I1020
sS'0 4118.3422'
p6617
I384
sS'0 4134.8222'
p6618
I384
sS'0 2393.4756'
p6619
I1020
sS'0 8874.2800'
p6620
I4
sS'0 9115.3467'
p6621
I4
sS'0 4209.4756'
p6622
I384
sS'0 4670.8667'
p6623
I144
sS'0 5145.1333'
p6624
I64
sS'0 4175.5644'
p6625
I384
sS'0 4179.5511'
p6626
I384
sS'0 4707.6667'
p6627
I144
sS'0 3114.3467'
p6628
I1020
sS'0 4118.7689'
p6629
I384
sS'0 9084.2800'
p6630
I4
sS'0 4209.2756'
p6631
I384
sS'0 9351.3511'
p6632
I4
sS'0 4161.4178'
p6633
I384
sS'0 9341.6356'
p6634
I4
sS'0 4043.7556'
p6635
I384
sS'0 3340.4800'
p6636
I1020
sS'0 9100.2089'
p6637
I4
sS'0 7670.2756'
p6638
I4
sS'0 4175.5467'
p6639
I384
sS'0 4672.8667'
p6640
I144
sS'0 4220.4178'
p6641
I384
sS'0 4175.6267'
p6642
I384
sS'0 4147.4222'
p6643
I384
sS'0 4116.3422'
p6644
I384
sS'0 4595.2667'
p6645
I144
sS'0 2871.2756'
p6646
I1020
sS'0 5201.2667'
p6647
I64
sS'0 8377.4133'
p6648
I4
sS'0 4223.8089'
p6649
I384
sS'0 3290.2800'
p6650
I1020
sS'0 4097.2756'
p6651
I384
sS'0 5037.2000'
p6652
I64
sS'0 4190.6178'
p6653
I384
sS'0 5177.4667'
p6654
I64
sS'0 8873.4844'
p6655
I4
sS'0 3260.2089'
p6656
I1020
sS'0 3112.4089'
p6657
I1020
sS'0 3100.6356'
p6658
I1020
sS'0 3116.6311'
p6659
I1020
sS'0 2875.4844'
p6660
I1020
sS'0 5141.3333'
p6661
I64
sS'0 4654.9333'
p6662
I144
sS'0 5162.1333'
p6663
I64
sS'0 4688.3333'
p6664
I144
sS'0 4103.5511'
p6665
I384
sS'0 3116.4222'
p6666
I1020
sS'0 8586.2800'
p6667
I4
sS'0 5201.2000'
p6668
I64
sS'0 4114.4089'
p6669
I384
sS'0 2392.4178'
p6670
I1020
sS'0 2391.2089'
p6671
I1020
sS'0 4194.9111'
p6672
I384
sS'0 4207.5644'
p6673
I384
sS'0 4104.8222'
p6674
I384
sS'0 9081.3511'
p6675
I4
sS'0 4084.4933'
p6676
I384
sS'0 5204.5333'
p6677
I64
sS'0 4087.7778'
p6678
I384
sS'0 5044.8000'
p6679
I64
sS'0 5147.4000'
p6680
I64
sS'0 4179.8978'
p6681
I384
sS'0 5155.2000'
p6682
I64
sS'0 5043.7333'
p6683
I64
sS'0 4204.2800'
p6684
I384
sS'0 4164.9156'
p6685
I384
sS'0 4177.6800'
p6686
I384
sS'10003.9333'
p6687
I24
sS'0 5044.4000'
p6688
I64
sS'0 4074.6089'
p6689
I384
sS'0 4134.6267'
p6690
I384
sS'0 4175.4933'
p6691
I384
sS'0 2841.2089'
p6692
I1020
sS'0 5209.6667'
p6693
I64
sS'0 4190.5556'
p6694
I384
sS'0 3066.2089'
p6695
I1020
sS'0 3100.4933'
p6696
I1020
sS'0 4119.8489'
p6697
I384
sS'0 5187.2000'
p6698
I64
sS'0 4114.5600'
p6699
I384
sS'0 5097.2667'
p6700
I64
sS'0 2570.2089'
p6701
I1020
sS'0 2872.3511'
p6702
I1020
sS'0 4193.6222'
p6703
I384
sS'0 9354.2756'
p6704
I4
sS'0 9099.4889'
p6705
I4
sS'0 4104.8489'
p6706
I384
sS'0 5117.6000'
p6707
I64
sS'0 4594.6000'
p6708
I144
sS'0 4188.4756'
p6709
I384
sS'0 4194.2800'
p6710
I384
sS'0 3097.2089'
p6711
I1020
sS'0 5102.6667'
p6712
I64
sS'0 3340.2756'
p6713
I1020
sS'0 3244.2089'
p6714
I1020
sS'0 4671.4667'
p6715
I144
sS'0 4104.5422'
p6716
I384
sS'0 4652.4667'
p6717
I144
sS'0 4084.5467'
p6718
I384
sS'0 9357.6978'
p6719
I4
sS'0 4088.8178'
p6720
I384
sS'0 7895.2800'
p6721
I4
sS'0 9356.5600'
p6722
I4
sS'0 4074.7689'
p6723
I384
sS'0 4037.4222'
p6724
I384
sS'0 9276.3511'
p6725
I4
sS'0 5145.2000'
p6726
I64
sS'0 4627.8667'
p6727
I144
sS'0 9356.6800'
p6728
I4
sS'10114.2667'
p6729
I4
sS'0 4674.2667'
p6730
I144
sS'10111.4000'
p6731
I4
sS'0 9052.4178'
p6732
I4
sS'0 9355.6267'
p6733
I4
sS'0 2631.3467'
p6734
I1020
sS'0 4057.3511'
p6735
I384
sS'0 4223.6222'
p6736
I384
sS'0 4145.4222'
p6737
I384
sS'0 3116.6889'
p6738
I1020
sS'0 4173.2756'
p6739
I384
sS'0 4194.3511'
p6740
I384
sS'0 8634.4933'
p6741
I4
sS'0 4088.7644'
p6742
I384
sS'0 8599.2089'
p6743
I4
sS'0 5190.1333'
p6744
I64
sS'0 4115.6133'
p6745
I384
sS'0 4068.3467'
p6746
I384
sS'0 8631.2089'
p6747
I4
sS'0 4147.6800'
p6748
I384
sS'0 2600.2089'
p6749
I1020
sS'0 3081.3511'
p6750
I1020
sS'0 3337.2800'
p6751
I1020
sS'0 5172.2000'
p6752
I64
sS'0 3337.2756'
p6753
I1020
sS'0 4040.4800'
p6754
I384
sS'0 2634.3422'
p6755
I1020
sS'0 8827.2089'
p6756
I4
sS'0 4222.7022'
p6757
I384
sS'0 5132.6667'
p6758
I64
sS'0 3357.5556'
p6759
I1020
sS'0 4163.7556'
p6760
I384
sS'0 5145.5333'
p6761
I64
sS'0 9350.2089'
p6762
I4
sS'0 4146.4800'
p6763
I384
sS'0 9355.5467'
p6764
I4
sS'0 4149.8267'
p6765
I384
sS'0 4188.2756'
p6766
I384
sS'0 4043.4800'
p6767
I384
sS'0 4190.4844'
p6768
I384
sS'0 9114.4933'
p6769
I4
sS'0 4164.4933'
p6770
I384
sS'0 4056.6089'
p6771
I384
sS'0 4219.4133'
p6772
I384
sS'0 3354.5422'
p6773
I1020
sS'0 4697.6667'
p6774
I144
sS'0 4206.6933'
p6775
I384
sS'0 3352.4178'
p6776
I1020
sS'0 4189.2756'
p6777
I384
sS'0 8150.2800'
p6778
I4
sS'0 4044.9022'
p6779
I384
sS'0 9100.6089'
p6780
I4
sS'0 4054.4756'
p6781
I384
sS'0 9111.3511'
p6782
I4
sS'0 2375.2800'
p6783
I1020
sS'0 3324.2089'
p6784
I1020
sS'0 4056.6889'
p6785
I384
sS'0 4132.2089'
p6786
I384
sS'0 8618.2756'
p6787
I4
sS'0 4103.2756'
p6788
I384
sS'0 4221.7067'
p6789
I384
sS'0 4717.7333'
p6790
I144
sS'0 3308.4089'
p6791
I1020
sS'0 8858.4133'
p6792
I4
sS'0 4607.6000'
p6793
I144
sS'0 3084.5556'
p6794
I1020
sS'0 5149.7333'
p6795
I64
sS'0 4085.6133'
p6796
I384
sS'0 3341.5422'
p6797
I1020
sS'0 9338.4133'
p6798
I4
sS'0 4178.8356'
p6799
I384
sS'0 4102.6222'
p6800
I384
sS'0 4133.6178'
p6801
I384
sS'0 4185.2089'
p6802
I384
sS'0 4579.8000'
p6803
I144
sS'0 4041.4178'
p6804
I384
sS'0 4148.7511'
p6805
I384
sS'0 4657.4000'
p6806
I144
sS'0 9034.2089'
p6807
I4
sS'0 8360.2089'
p6808
I4
sS'0 4640.6667'
p6809
I144
sS'0 4714.2000'
p6810
I144
sS'0 4056.7067'
p6811
I384
sS'0 8618.2800'
p6812
I4
sS'0 4057.5556'
p6813
I384
sS'0 4641.3333'
p6814
I144
sS'0 4057.4178'
p6815
I384
sS'0 5205.3333'
p6816
I64
sS'0 9341.5600'
p6817
I4
sS'10107.1333'
p6818
I4
sS'0 4658.7333'
p6819
I144
sS'10102.8667'
p6820
I4
sS'0 3356.3467'
p6821
I1020
sS'0 4592.5333'
p6822
I144
sS'0 9337.2800'
p6823
I4
sS'0 4134.8889'
p6824
I384
sS'0 4205.2756'
p6825
I384
sS'0 5222.2000'
p6826
I64
sS'0 4223.7511'
p6827
I384
sS'0 5072.2000'
p6828
I64
sS'0 3355.2756'
p6829
I1020
sS'0 4207.7467'
p6830
I384
sS'0 4069.4133'
p6831
I384
sS'0 4155.2800'
p6832
I384
sS'0 3291.2756'
p6833
I1020
sS'0 4209.8444'
p6834
I384
sS'0 4089.8356'
p6835
I384
sS'0 9323.4089'
p6836
I4
sS'0 4040.4933'
p6837
I384
sS'0 4143.4089'
p6838
I384
sS'0 3340.5511'
p6839
I1020
sS'0 4209.6311'
p6840
I384
sS'0 8585.2089'
p6841
I4
sS'0 3324.5467'
p6842
I1020
sS'0 8869.2089'
p6843
I4
sS'0 5194.6667'
p6844
I64
sS'0 9323.4889'
p6845
I4
sS'0 3034.2089'
p6846
I1020
sS'0 5218.4667'
p6847
I64
sS'0 5207.6667'
p6848
I64
sS'0 4174.4933'
p6849
I384
sS'0 3356.2756'
p6850
I1020
sS'0 4178.6356'
p6851
I384
sS'0 3336.3422'
p6852
I1020
sS'0 4143.4889'
p6853
I384
sS'0 4637.4000'
p6854
I144
sS'0 4592.9333'
p6855
I144
sS'0 2843.2089'
p6856
I1020
sS'0 9084.5644'
p6857
I4
sS'0 2601.2800'
p6858
I1020
sS'0 8875.4800'
p6859
I4
sS'0 4640.7333'
p6860
I144
sS'0 8826.3422'
p6861
I4
sS'0 5218.4000'
p6862
I64
sS'0 4190.5511'
p6863
I384
sS'10006.9333'
p6864
I24
sS'0 4058.7600'
p6865
I384
sS'0 4175.4133'
p6866
I384
sS'0 3100.4133'
p6867
I1020
sS'0 3340.4178'
p6868
I1020
sS'0 5068.1333'
p6869
I64
sS'0 9068.4800'
p6870
I4
sS'0 4194.4933'
p6871
I384
sS'0 2857.2800'
p6872
I1020
sS'0 8602.3511'
p6873
I4
sS'0 4134.4889'
p6874
I384
sS'0 4668.5333'
p6875
I144
sS'0 4102.5556'
p6876
I384
sS'0 4103.7067'
p6877
I384
sS'0 4148.7600'
p6878
I384
sS'0 4178.4933'
p6879
I384
sS'0 5087.1333'
p6880
I64
sS'0 4715.8000'
p6881
I144
sS'0 5051.2667'
p6882
I64
sS'0 4716.5333'
p6883
I144
sS'0 3112.2756'
p6884
I1020
sS'0 4097.3422'
p6885
I384
sS'0 2393.3422'
p6886
I1020
sS'0 4191.4800'
p6887
I384
sS'0 4100.4756'
p6888
I384
sS'0 4193.6844'
p6889
I384
sS'0 4087.6089'
p6890
I384
sS'0 3355.4756'
p6891
I1020
sS'0 2361.2800'
p6892
I1020
sS'0 4145.3422'
p6893
I384
sS'0 9357.6178'
p6894
I4
sS'0 4191.5600'
p6895
I384
sS'0 5039.2000'
p6896
I64
sS'0 4164.8933'
p6897
I384
sS'0 2794.2089'
p6898
I1020
sS'0 5193.7333'
p6899
I64
sS'0 8874.4178'
p6900
I4
sS'0 4073.3467'
p6901
I384
sS'0 4158.4089'
p6902
I384
sS'0 4089.6356'
p6903
I384
sS'0 2618.3422'
p6904
I1020
sS'0 4562.7333'
p6905
I144
sS'0 3289.2089'
p6906
I1020
sS'0 4673.3333'
p6907
I144
sS'0 4194.6267'
p6908
I384
sS'0 4627.1333'
p6909
I144
sS'0 2377.4222'
p6910
I1020
sS'0 4071.4756'
p6911
I384
sS'0 4103.6889'
p6912
I384
sS'0 4147.4756'
p6913
I384
sS'0 9084.5600'
p6914
I4
sS'0 4223.6311'
p6915
I384
sS'0 5125.1333'
p6916
I64
sS'0 4039.5467'
p6917
I384
sS'0 3112.2800'
p6918
I1020
sS'0 4161.4844'
p6919
I384
sS'0 4158.4889'
p6920
I384
sS'0 5158.1333'
p6921
I64
sS'0 8634.4222'
p6922
I4
sS'0 5172.3333'
p6923
I64
sS'10109.8667'
p6924
I4
sS'0 4669.8667'
p6925
I144
sS'0 9116.6800'
p6926
I4
sS'0 9115.2756'
p6927
I4
sS'0 2858.4889'
p6928
I1020
sS'0 4127.4133'
p6929
I384
sS'0 4039.2800'
p6930
I384
sS'0 5086.6000'
p6931
I64
sS'0 4103.6089'
p6932
I384
sS'0 3322.3467'
p6933
I1020
sS'0 5043.6667'
p6934
I64
sS'0 5159.3333'
p6935
I64
sS'0 1895.2800'
p6936
I1020
sS'0 9324.4133'
p6937
I4
sS'0 3100.6089'
p6938
I1020
sS'0 4043.8267'
p6939
I384
sS'0 9100.5467'
p6940
I4
sS'0 4042.4178'
p6941
I384
sS'0 2616.3467'
p6942
I1020
sS'0 4116.2089'
p6943
I384
sS'0 4667.9333'
p6944
I144
sS'10107.9333'
p6945
I4
sS'0 5221.4667'
p6946
I64
sS'0 5058.6667'
p6947
I64
sS'0 4119.8133'
p6948
I384
sS'0 9354.4933'
p6949
I4
sS'0 4068.4222'
p6950
I384
sS'0 5071.6000'
p6951
I64
sS'0 5043.6000'
p6952
I64
sS'0 4640.9333'
p6953
I144
sS'0 9308.4133'
p6954
I4
sS'10011.4667'
p6955
I24
sS'0 4200.2800'
p6956
I384
sS'0 2871.3422'
p6957
I1020
sS'0 9112.3422'
p6958
I4
sS'0 5222.6000'
p6959
I64
sS'0 2871.2089'
p6960
I1020
sS'0 8586.2756'
p6961
I4
sS'0 4104.8978'
p6962
I384
sS'0 5223.5333'
p6963
I64
sS'0 8393.4756'
p6964
I4
sS'0 2873.3422'
p6965
I1020
sS'0 8602.4089'
p6966
I4
sS'0 4142.2800'
p6967
I384
sS'0 3084.2089'
p6968
I1020
sS'0 4703.9333'
p6969
I144
sS'0 5179.1333'
p6970
I64
sS'0 3035.2800'
p6971
I1020
sS'0 2809.2089'
p6972
I1020
sS'0 5097.3333'
p6973
I64
sS'0 4611.8667'
p6974
I144
sS'0 5127.4000'
p6975
I64
sS'0 4071.6267'
p6976
I384
sS'0 2375.2089'
p6977
I1020
sS'10003.8000'
p6978
I24
sS'0 4131.4133'
p6979
I384
sS'0 9082.3511'
p6980
I4
sS'0 4657.7333'
p6981
I144
sS'0 9305.2089'
p6982
I4
sS'0 9115.4178'
p6983
I4
sS'0 2633.4889'
p6984
I1020
sS'0 4593.4667'
p6985
I144
sS'0 9083.4933'
p6986
I4
sS'0 4207.3511'
p6987
I384
sS'0 8135.2800'
p6988
I4
sS'0 4099.2800'
p6989
I384
sS'0 3100.4178'
p6990
I1020
sS'0 4643.3333'
p6991
I144
sS'0 4104.6178'
p6992
I384
sS'0 3100.3467'
p6993
I1020
sS'0 9324.3467'
p6994
I4
sS'0 4147.4889'
p6995
I384
sS'0 2856.3422'
p6996
I1020
sS'0 4219.5556'
p6997
I384
sS'0 5223.4000'
p6998
I64
sS'0 7669.2089'
p6999
I4
sS'0 9098.4800'
p7000
I4
sS'0 4162.4800'
p7001
I384
sS'0 3337.3422'
p7002
I1020
sS'0 4707.1333'
p7003
I144
sS'0 3083.3511'
p7004
I1020
sS'0 4627.4000'
p7005
I144
sS'0 4084.4178'
p7006
I384
sS'0 4101.7022'
p7007
I384
sS'0 4593.9333'
p7008
I144
sS'0 4209.8267'
p7009
I384
sS'0 2631.2756'
p7010
I1020
sS'0 4673.4667'
p7011
I144
sS'0 4129.3467'
p7012
I384
sS'0 4203.4844'
p7013
I384
sS'0 4058.8356'
p7014
I384
sS'0 5154.1333'
p7015
I64
sS'0 4099.3511'
p7016
I384
sS'0 2392.4133'
p7017
I1020
sS'0 5163.1333'
p7018
I64
sS'0 2858.3467'
p7019
I1020
sS'0 5104.8667'
p7020
I64
sS'0 4610.4000'
p7021
I144
sS'0 4074.5644'
p7022
I384
sS'0 3084.4222'
p7023
I1020
sS'0 4133.6800'
p7024
I384
sS'10102.2667'
p7025
I4
sS'10209.5333'
p7026
I4
sS'0 3276.3422'
p7027
I1020
sS'0 8633.4844'
p7028
I4
sS'0 5171.3333'
p7029
I64
sS'0 8570.2756'
p7030
I4
sS'0 4103.3422'
p7031
I384
sS'0 9099.4089'
p7032
I4
sS'10012.1333'
p7033
I24
sS'0 4222.6756'
p7034
I384
sS'0 4069.4800'
p7035
I384
sS'0 8601.3422'
p7036
I4
sS'0 5101.4667'
p7037
I64
sS'0 4627.8000'
p7038
I144
sS'0 5145.2667'
p7039
I64
sS'0 4103.2089'
p7040
I384
sS'0 9355.4756'
p7041
I4
sS'0 5086.2000'
p7042
I64
sS'0 4178.4133'
p7043
I384
sS'0 5089.6667'
p7044
I64
sS'0 4130.6089'
p7045
I384
sS'0 4127.3467'
p7046
I384
sS'0 4146.4178'
p7047
I384
sS'0 4118.6933'
p7048
I384
sS'0 3306.3511'
p7049
I1020
sS'0 4073.7778'
p7050
I384
sS'0 5065.2000'
p7051
I64
sS'0 4101.6089'
p7052
I384
sS'0 4054.5422'
p7053
I384
sS'0 9357.2089'
p7054
I4
sS'0 4119.7600'
p7055
I384
sS'0 4102.7778'
p7056
I384
sS'0 3114.4889'
p7057
I1020
sS'0 8618.3422'
p7058
I4
sS'0 9052.3422'
p7059
I4
sS'0 4044.7511'
p7060
I384
sS'0 4191.6178'
p7061
I384
sS'0 4178.7022'
p7062
I384
sS'0 3245.2756'
p7063
I1020
sS'0 3098.3511'
p7064
I1020
sS'0 4101.6844'
p7065
I384
sS'0 3114.4089'
p7066
I1020
sS'0 4118.7511'
p7067
I384
sS'0 3357.4800'
p7068
I1020
sS'0 4219.4178'
p7069
I384
sS'0 2840.2756'
p7070
I1020
sS'0 5190.4000'
p7071
I64
sS'0 4209.7689'
p7072
I384
sS'0 4146.5556'
p7073
I384
sS'0 5133.2667'
p7074
I64
sS'10013.4667'
p7075
I24
sS'0 4194.4222'
p7076
I384
sS'0 4625.6000'
p7077
I144
sS'0 4157.3467'
p7078
I384
sS'0 4699.4667'
p7079
I144
sS'0 2602.2756'
p7080
I1020
sS'0 4194.6844'
p7081
I384
sS'0 4222.6178'
p7082
I384
sS'0 5213.1333'
p7083
I64
sS'0 5179.8667'
p7084
I64
sS'0 4149.6844'
p7085
I384
sS'0 4054.4178'
p7086
I384
sS'0 2634.4178'
p7087
I1020
sS'0 5205.2000'
p7088
I64
sS'0 4038.4222'
p7089
I384
sS'0 4626.2000'
p7090
I144
sS'0 2858.4756'
p7091
I1020
sS'0 9324.4933'
p7092
I4
sS'0 4044.6178'
p7093
I384
sS'0 9083.3511'
p7094
I4
sS'0 2392.4222'
p7095
I1020
sS'0 4057.6844'
p7096
I384
sS'10007.3333'
p7097
I24
sS'0 4624.8000'
p7098
I144
sS'0 4206.2800'
p7099
I384
sS'0 4058.6978'
p7100
I384
sS'0 4072.6089'
p7101
I384
sS'0 4178.6089'
p7102
I384
sS'0 4102.6800'
p7103
I384
sS'0 3291.3422'
p7104
I1020
sS'0 9308.2089'
p7105
I4
sS'0 2857.4133'
p7106
I1020
sS'0 4643.7333'
p7107
I144
sS'0 5108.1333'
p7108
I64
sS'0 4698.1333'
p7109
I144
sS'0 5111.1333'
p7110
I64
sS'0 4209.7422'
p7111
I384
sS'0 5161.6000'
p7112
I64
sS'0 3337.4089'
p7113
I1020
sS'0 3339.3511'
p7114
I1020
sS'0 4089.8800'
p7115
I384
sS'0 5103.6000'
p7116
I64
sS'0 9322.3511'
p7117
I4
sS'0 4057.6267'
p7118
I384
sS'0 4043.6178'
p7119
I384
sS'0 4187.4178'
p7120
I384
sS'0 4147.5422'
p7121
I384
sS'0 9325.4089'
p7122
I4
sS'0 4593.1333'
p7123
I144
sS'0 3324.4178'
p7124
I1020
sS'0 5100.4667'
p7125
I64
sS'0 4147.6889'
p7126
I384
sS'0 9355.2800'
p7127
I4
sS'0 4707.4667'
p7128
I144
sS'0 9325.4889'
p7129
I4
sS'0 9115.3422'
p7130
I4
sS'0 4592.3333'
p7131
I144
sS'0 2824.2089'
p7132
I1020
sS'0 8859.5511'
p7133
I4
sS'0 4131.4933'
p7134
I384
sS'0 8843.4889'
p7135
I4
sS'0 4175.5600'
p7136
I384
sS'0 4179.5556'
p7137
I384
sS'0 4683.3333'
p7138
I144
sS'0 1911.2800'
p7139
I1020
sS'0 9068.4756'
p7140
I4
sS'0 3115.6178'
p7141
I1020
sS'0 4161.4133'
p7142
I384
sS'0 3293.3511'
p7143
I1020
sS'0 9341.6311'
p7144
I4
sS'0 5102.5333'
p7145
I64
sS'0 4071.4889'
p7146
I384
sS'0 3340.4844'
p7147
I1020
sS'0 4223.2800'
p7148
I384
sS'0 4209.6978'
p7149
I384
sS'0 9082.2800'
p7150
I4
sS'0 5189.4667'
p7151
I64
sS'0 9068.4133'
p7152
I4
sS'0 9259.2089'
p7153
I4
sS'0 4071.5422'
p7154
I384
sS'0 3112.3422'
p7155
I1020
sS'0 3084.3511'
p7156
I1020
sS'0 2873.4222'
p7157
I1020
sS'0 4206.5511'
p7158
I384
sS'0 4686.8667'
p7159
I144
sS'10107.6000'
p7160
I4
sS'0 4207.2800'
p7161
I384
sS'0 3100.6311'
p7162
I1020
sS'0 4083.4133'
p7163
I384
sS'0 5509.5333'
p7164
I1020
sS'0 2875.4800'
p7165
I1020
sS'0 4071.4089'
p7166
I384
sS'0 4623.4000'
p7167
I144
sS'0 8633.2089'
p7168
I4
sS'0 5126.2000'
p7169
I64
sS'0 4622.2667'
p7170
I144
sS'0 5174.2000'
p7171
I64
sS'0 3114.3422'
p7172
I1020
sS'0 4087.4933'
p7173
I384
sS'0 4087.5511'
p7174
I384
sS'0 4178.3467'
p7175
I384
sS'0 4130.2089'
p7176
I384
sS'0 4116.2800'
p7177
I384
sS'0 4194.9156'
p7178
I384
sS'0 4058.7022'
p7179
I384
sS'0 9083.4756'
p7180
I4
sS'0 5053.2667'
p7181
I64
sS'0 3097.4089'
p7182
I1020
sS'0 4222.2089'
p7183
I384
sS'0 4042.7556'
p7184
I384
sS'0 3099.2089'
p7185
I1020
sS'0 4716.8667'
p7186
I144
sS'0 4179.8933'
p7187
I384
sS'0 4669.9333'
p7188
I144
sS'10109.9333'
p7189
I4
sS'0 5188.1333'
p7190
I64
sS'0 5209.4667'
p7191
I64
sS'0 4116.3467'
p7192
I384
sS'0 4206.4756'
p7193
I384
sS'0 8858.4222'
p7194
I4
sS'0 4072.4933'
p7195
I384
sS'0 4042.4844'
p7196
I384
sS'0 5185.2667'
p7197
I64
sS'0 8152.2800'
p7198
I4
sS'0 5159.2667'
p7199
I64
sS'0 4715.8667'
p7200
I144
sS'0 5158.2667'
p7201
I64
sS'0 9049.2089'
p7202
I4
sS'0 9115.6311'
p7203
I4
sS'0 4103.5556'
p7204
I384
sS'0 5191.2667'
p7205
I64
sS'0 4209.3511'
p7206
I384
sS'0 5073.2000'
p7207
I64
sS'0 4193.6267'
p7208
I384
sS'0 4089.6311'
p7209
I384
sS'0 9116.6133'
p7210
I4
sS'0 4640.8667'
p7211
I144
sS'0 5159.2000'
p7212
I64
sS'0 5203.4000'
p7213
I64
sS'0 3353.3511'
p7214
I1020
sS'0 4191.2089'
p7215
I384
sS'0 9100.4756'
p7216
I4
sS'0 4641.8667'
p7217
I144
sS'0 5123.1333'
p7218
I64
sS'0 4131.6133'
p7219
I384
sS'0 5134.6000'
p7220
I64
sS'0 4147.6978'
p7221
I384
sS'0 2826.3511'
p7222
I1020
sS'0 4193.6089'
p7223
I384
sS'0 3068.4222'
p7224
I1020
sS'0 5205.6000'
p7225
I64
sS'0 8151.3467'
p7226
I4
sS'10114.4667'
p7227
I4
sS'0 8859.2756'
p7228
I4
sS'0 9357.6933'
p7229
I4
sS'0 4640.8000'
p7230
I144
sS'0 5068.4000'
p7231
I64
sS'0 4563.8667'
p7232
I144
sS'0 9356.6844'
p7233
I4
sS'0 9067.2089'
p7234
I4
sS'0 4562.8667'
p7235
I144
sS'0 4175.6356'
p7236
I384
sS'0 4059.7600'
p7237
I384
sS'0 3338.2089'
p7238
I1020
sS'0 4221.5467'
p7239
I384
sS'0 9067.2800'
p7240
I4
sS'0 4219.3511'
p7241
I384
sS'0 3116.6844'
p7242
I1020
sS'0 4190.5600'
p7243
I384
sS'0 4074.8089'
p7244
I384
sS'0 2631.3422'
p7245
I1020
sS'0 4698.5333'
p7246
I144
sS'0 4223.6267'
p7247
I384
sS'0 9320.2756'
p7248
I4
sS'0 3356.4089'
p7249
I1020
sS'0 2632.4222'
p7250
I1020
sS'0 4074.8889'
p7251
I384
sS'10005.2667'
p7252
I24
sS'0 4158.2800'
p7253
I384
sS'0 4088.7600'
p7254
I384
sS'0 4171.3511'
p7255
I384
sS'0 4162.2089'
p7256
I384
sS'0 4216.2800'
p7257
I384
sS'0 3356.4889'
p7258
I1020
sS'0 7895.2089'
p7259
I4
sS'10008.4667'
p7260
I24
sS'10005.2000'
p7261
I24
sS'0 3354.5644'
p7262
I1020
sS'0 3051.3467'
p7263
I1020
sS'0 3020.2756'
p7264
I1020
sS'0 1910.2756'
p7265
I1020
sS'0 4163.7511'
p7266
I384
sS'0 5189.2000'
p7267
I64
sS'0 4149.8222'
p7268
I384
sS'0 2875.2800'
p7269
I1020
sS'0 4072.5600'
p7270
I384
sS'0 9352.2800'
p7271
I4
sS'0 4148.8267'
p7272
I384
sS'0 4043.4844'
p7273
I384
sS'0 4149.9022'
p7274
I384
sS'0 2858.4089'
p7275
I1020
sS'0 4190.4800'
p7276
I384
sS'0 3115.3422'
p7277
I1020
sS'0 3339.4933'
p7278
I1020
sS'0 2602.4178'
p7279
I1020
sS'0 3354.5467'
p7280
I1020
sS'0 3096.2089'
p7281
I1020
sS'0 5110.1333'
p7282
I64
sS'0 3100.2756'
p7283
I1020
sS'0 4059.6267'
p7284
I384
sS'0 4118.8089'
p7285
I384
sS'0 4626.2667'
p7286
I144
sS'0 3352.4133'
p7287
I1020
sS'0 4074.9022'
p7288
I384
sS'0 4625.2667'
p7289
I144
sS'0 3341.2800'
p7290
I1020
sS'0 4133.6756'
p7291
I384
sS'0 4219.4222'
p7292
I384
sS'0 4041.4800'
p7293
I384
sS'0 9099.3511'
p7294
I4
sS'0 3353.4889'
p7295
I1020
sS'0 4656.3333'
p7296
I144
sS'0 4719.7333'
p7297
I144
sS'0 4222.6889'
p7298
I384
sS'0 5161.4667'
p7299
I64
sS'0 3357.6178'
p7300
I1020
sS'0 4706.5333'
p7301
I144
sS'0 3341.5467'
p7302
I1020
sS'0 4101.6311'
p7303
I384
sS'0 2855.2800'
p7304
I1020
sS'0 4205.4178'
p7305
I384
sS'0 9338.4178'
p7306
I4
sS'0 4102.3422'
p7307
I384
sS'0 8393.3511'
p7308
I4
sS'0 3322.2800'
p7309
I1020
sS'0 9080.2756'
p7310
I4
sS'0 4133.6133'
p7311
I384
sS'0 5133.7333'
p7312
I64
sS'0 4189.4933'
p7313
I384
sS'0 4044.4222'
p7314
I384
sS'0 4044.4889'
p7315
I384
sS'0 3307.4178'
p7316
I1020
sS'0 4131.2800'
p7317
I384
sS'0 5089.5333'
p7318
I64
sS'0 4222.6089'
p7319
I384
sS'0 4209.6222'
p7320
I384
sS'0 9357.3467'
p7321
I4
sS'0 5148.7333'
p7322
I64
sS'0 4044.8222'
p7323
I384
sS'0 4179.4933'
p7324
I384
sS'0 9277.4089'
p7325
I4
sS'0 3353.4222'
p7326
I1020
sS'0 4056.7022'
p7327
I384
sS'0 2104.2089'
p7328
I1020
sS'0 4223.7733'
p7329
I384
sS'0 4148.5644'
p7330
I384
sS'0 8858.4178'
p7331
I4
sS'0 4057.5511'
p7332
I384
sS'0 4595.9333'
p7333
I144
sS'0 3084.5511'
p7334
I1020
sS'0 9066.3511'
p7335
I4
sS'0 3356.3422'
p7336
I1020
sS'0 9340.2800'
p7337
I4
sS'0 4084.5644'
p7338
I384
sS'0 4209.6178'
p7339
I384
sS'0 4086.6311'
p7340
I384
sS'0 4163.8178'
p7341
I384
sS'0 4704.6667'
p7342
I144
sS'0 4222.7422'
p7343
I384
sS'0 4223.7556'
p7344
I384
sS'0 2827.2089'
p7345
I1020
sS'0 2634.4800'
p7346
I1020
sS'0 3340.6356'
p7347
I1020
sS'0 4209.8400'
p7348
I384
sS'0 4127.2756'
p7349
I384
sS'0 4089.8311'
p7350
I384
sS'0 4626.6667'
p7351
I144
sS'0 3340.5556'
p7352
I1020
sS'0 4209.6356'
p7353
I384
sS'0 4610.8000'
p7354
I144
sS'0 4723.6667'
p7355
I144
sS'0 4640.4000'
p7356
I144
sS'0 3336.3467'
p7357
I1020
sS'0 4143.4844'
p7358
I384
sS'0 4178.6311'
p7359
I384
sS'0 3355.4933'
p7360
I1020
sS'0 4191.5422'
p7361
I384
sS'0 9113.2800'
p7362
I4
sS'0 4643.8667'
p7363
I144
sS'0 4720.8000'
p7364
I144
sS'0 4133.8222'
p7365
I384
sS'0 4207.7422'
p7366
I384
sS'0 4702.2000'
p7367
I144
sS'0 7911.2089'
p7368
I4
sS'0 2390.2089'
p7369
I1020
sS'0 9097.4089'
p7370
I4
sS'0 9340.3511'
p7371
I4
sS'0 4069.5556'
p7372
I384
sS'10004.3333'
p7373
I24
sS'0 9307.3511'
p7374
I4
sS'0 4058.7644'
p7375
I384
sS'10010.3333'
p7376
I24
sS'10103.4000'
p7377
I4
sS'0 4054.3511'
p7378
I384
sS'0 4193.2089'
p7379
I384
sS'0 3335.2800'
p7380
I1020
sS'0 9323.4844'
p7381
I4
sS'0 4043.7467'
p7382
I384
sS'0 5058.4667'
p7383
I64
sS'0 4134.8178'
p7384
I384
sS'0 4134.4844'
p7385
I384
sS'0 9292.3511'
p7386
I4
sS'0 8874.4800'
p7387
I4
sS'0 4191.4844'
p7388
I384
sS'0 4117.5422'
p7389
I384
sS'10006.7333'
p7390
I24
sS'0 4202.3511'
p7391
I384
sS'0 9113.3511'
p7392
I4
sS'0 4187.2800'
p7393
I384
sS'0 4098.2756'
p7394
I384
sS'0 9357.6133'
p7395
I4
sS'0 9341.6089'
p7396
I4
sS'0 4145.3467'
p7397
I384
sS'0 4191.5644'
p7398
I384
sS'0 4058.4844'
p7399
I384
sS'0 8634.3511'
p7400
I4
sS'0 4594.5333'
p7401
I144
sS'0 4667.6000'
p7402
I144
sS'0 2857.3467'
p7403
I1020
sS'0 9051.3511'
p7404
I4
sS'0 4698.2667'
p7405
I144
sS'0 8873.4933'
p7406
I4
sS'0 3099.4756'
p7407
I1020
sS'0 3097.3511'
p7408
I1020
sS'0 9341.6889'
p7409
I4
sS'0 4073.3422'
p7410
I384
sS'0 4173.4222'
p7411
I384
sS'0 4172.3511'
p7412
I384
sS'0 9356.4756'
p7413
I4
sS'0 8392.4222'
p7414
I4
sS'0 4190.4889'
p7415
I384
sS'0 2874.4756'
p7416
I1020
sS'0 4703.1333'
p7417
I144
sS'0 2618.3467'
p7418
I1020
sS'0 4194.6222'
p7419
I384
sS'0 4223.2756'
p7420
I384
sS'10011.6667'
p7421
I24
sS'0 4719.3333'
p7422
I144
sS'0 5148.8000'
p7423
I64
sS'0 4611.6667'
p7424
I144
sS'0 5072.4000'
p7425
I64
sS'0 2393.3467'
p7426
I1020
sS'0 4593.2667'
p7427
I144
sS'0 4705.6000'
p7428
I144
sS'0 2361.3467'
p7429
I1020
sS'0 4161.4800'
p7430
I384
sS'0 4132.6267'
p7431
I384
sS'0 4209.4844'
p7432
I384
sS'0 4089.8489'
p7433
I384
sS'0 2120.2089'
p7434
I1020
sS'0 2377.4089'
p7435
I1020
sS'0 9116.6844'
p7436
I4
sS'0 4074.4933'
p7437
I384
sS'0 4209.5467'
p7438
I384
sS'0 4592.2000'
p7439
I144
sS'0 5084.4000'
p7440
I64
sS'0 4127.4178'
p7441
I384
sS'0 5221.6667'
p7442
I64
sS'0 4069.5600'
p7443
I384
sS'0 4683.4667'
p7444
I144
sS'0 9083.4889'
p7445
I4
sS'0 5220.3333'
p7446
I64
sS'0 3052.4133'
p7447
I1020
sS'0 4579.2000'
p7448
I144
sS'0 3099.4800'
p7449
I1020
sS'0 4115.6178'
p7450
I384
sS'0 4043.8222'
p7451
I384
sS'0 4087.7067'
p7452
I384
sS'0 2616.3422'
p7453
I1020
sS'0 4161.3467'
p7454
I384
sS'0 9341.7067'
p7455
I4
sS'10003.6667'
p7456
I24
sS'0 4115.3467'
p7457
I384
sS'0 9340.5556'
p7458
I4
sS'0 4161.5600'
p7459
I384
sS'0 4119.8178'
p7460
I384
sS'0 3099.2756'
p7461
I1020
sS'0 5074.2000'
p7462
I64
sS'0 4188.4889'
p7463
I384
sS'0 3338.4933'
p7464
I1020
sS'10108.7333'
p7465
I4
s.